(lp0
V/static/nourineGraphs/Tyrocidine A.png
p1
ac__builtin__
id
p2
aVTyrocidine A
p3
aV/static/designedGraphs/Tyrocidine A.png
p4
aS'<table id="table_old" class="display table table-striped table-bordered" width="100%">\n\t        <col width="220">\n\t        <col width="220">\n\t        <col width="220">\n\t        <col width="220">\n\t        <col width="220">\n\t        \n\t        <thead>\n\t            <tr>\n\t            <th>Index</th>\n\t        \n\t                <th>A1</th>\n\t            \n\t                <th>Linker</th>\n\t            \n\t                <th>A2</th>\n\t            \n\t                <th>Antibiotic</th>\n\t            \n\t                <th>MIBiD_ID</th>\n\t            \n\t                <th>Length</th>\n\t            \n\t                <th>Cluster</th>\n\t            </tr>\n\t        </thead>\n\t        <tfoot>\n\t            <tr>\n\t            <th>Index</th>\n\t            \n\t                <th>A1</th>\n\t            \n\t                <th>Linker</th>\n\t            \n\t                <th>A2</th>\n\t            \n\t                <th>Antibiotic</th>\n\t            \n\t                <th>MIBiD_ID</th>\n\t            \n\t                <th>Length</th>\n\t            \n\t                <th>Cluster</th>\n\t            </tr>\n\t        </tfoot>\n\t        <tbody>\n\t            <tr>\n\t                <td>857</td>\n\t                \n\t                    <td>pro</td>\n\t                    \n\t                    <td>EEAGTYLAIPQVT</td>\n\t                    \n\t                    <td>phe</td>\n\t                    \n\t                    <td>Tyrocidine biosynthetic gene cluster</td>\n\t                    \n\t                    <td>BGC0000452.1</td>\n\t                    \n\t                    <td>13</td>\n\t                    \n\t                    <td>BGC0000452.1.cluster001.gbk</td>\n\t                    \n\t            </tr>\n\t            <tr>\n\t                <td>858</td>\n\t                \n\t                    <td>phe</td>\n\t                    \n\t                    <td>ENTSDALIQPAER</td>\n\t                    \n\t                    <td>phe</td>\n\t                    \n\t                    <td>Tyrocidine biosynthetic gene cluster</td>\n\t                    \n\t                    <td>BGC0000452.1</td>\n\t                    \n\t                    <td>13</td>\n\t                    \n\t                    <td>BGC0000452.1.cluster001.gbk</td>\n\t                    \n\t            </tr>\n\t            <tr>\n\t                <td>863</td>\n\t                \n\t                    <td>orn</td>\n\t                    \n\t                    <td>AKEYVISIKPAPAQ</td>\n\t                    \n\t                    <td>leu</td>\n\t                    \n\t                    <td>Tyrocidine biosynthetic gene cluster</td>\n\t                    \n\t                    <td>BGC0000452.1</td>\n\t                    \n\t                    <td>14</td>\n\t                    \n\t                    <td>BGC0000452.1.cluster001.gbk</td>\n\t                    \n\t            </tr>\n\t        </tbody>\n\t    </table>'
p5
aS'<table id="table_new" class="display table table-striped table-bordered" width="100%">\n\t        <col width="220">\n\t        <col width="220">\n\t        <col width="220">\n\t        <col width="220">\n\t        <col width="220">\n\t        \n\t        <thead>\n\t            <tr>\n\t            <th>Index</th>\n\t        \n\t                <th>A1</th>\n\t            \n\t                <th>Linker</th>\n\t            \n\t                <th>A2</th>\n\t            \n\t                <th>Length</th>\n\t            \n\t                <th>Description</th>\n\t            \n\t                <th>Cluster</th>\n\t            </tr>\n\t        </thead>\n\t        <tfoot>\n\t            <tr>\n\t            <th>Index</th>\n\t            \n\t                <th>A1</th>\n\t            \n\t                <th>Linker</th>\n\t            \n\t                <th>A2</th>\n\t            \n\t                <th>Length</th>\n\t            \n\t                <th>Description</th>\n\t            \n\t                <th>Cluster</th>\n\t            </tr>\n\t        </tfoot>\n\t        <tbody>\n\t            <tr>\n\t                <td>294</td>\n\t                \n\t                    <td>val</td>\n\t                    \n\t                    <td>GRARSGLTVRER</td>\n\t                    \n\t                    <td>phe</td>\n\t                    \n\t                    <td>12</td>\n\t                    \n\t                    <td>Streptomyces sp. AA0539 contig00029, whole genome ...</td>\n\t                    \n\t                    <td>NZ_ALNP01000001.1.cluster007.gbk</td>\n\t                    \n\t            </tr>\n\t            <tr>\n\t                <td>628</td>\n\t                \n\t                    <td>val</td>\n\t                    \n\t                    <td>HQVVTVPPNFITATTTALTPAILPLIDLTQPDIDHIVGQVPGGAAN</td>\n\t                    \n\t                    <td>phe</td>\n\t                    \n\t                    <td>46</td>\n\t                    \n\t                    <td>Xenorhabdus nematophila AN6/1 genome assembly XNC2...</td>\n\t                    \n\t                    <td>NZ_LN681227.1.cluster003.gbk</td>\n\t                    \n\t            </tr>\n\t            <tr>\n\t                <td>1879</td>\n\t                \n\t                    <td>val</td>\n\t                    \n\t                    <td>TGADADTIAPAPRE</td>\n\t                    \n\t                    <td>phe</td>\n\t                    \n\t                    <td>14</td>\n\t                    \n\t                    <td>Streptomyces sp. LaPpAH-202 genomic scaffold B048D...</td>\n\t                    \n\t                    <td>NZ_KB890704.1.cluster009.gbk</td>\n\t                    \n\t            </tr>\n\t            <tr>\n\t                <td>1964</td>\n\t                \n\t                    <td>val</td>\n\t                    \n\t                    <td>GAAPAVPVPANRIGEGCARITPELLPLATLSQAAIDRIVAGVPGGVAN</td>\n\t                    \n\t                    <td>phe</td>\n\t                    \n\t                    <td>48</td>\n\t                    \n\t                    <td>Burkholderia gladioli strain ATCC 25417 scaffold2,...</td>\n\t                    \n\t                    <td>NZ_KN150849.1.cluster008.gbk</td>\n\t                    \n\t            </tr>\n\t            <tr>\n\t                <td>3030</td>\n\t                \n\t                    <td>val</td>\n\t                    \n\t                    <td>GGAPVAQGQDIEPADRS</td>\n\t                    \n\t                    <td>phe</td>\n\t                    \n\t                    <td>17</td>\n\t                    \n\t                    <td>[Polyangium] brachysporum strain DSM 7029, complet...</td>\n\t                    \n\t                    <td>NZ_CP011371.1.cluster006.gbk</td>\n\t                    \n\t            </tr>\n\t            <tr>\n\t                <td>4299</td>\n\t                \n\t                    <td>val</td>\n\t                    \n\t                    <td>HQSFVLPPNVITPATTTLTPEMFPLIDLTQPDVDRMVGQVPGGIAN</td>\n\t                    \n\t                    <td>phe</td>\n\t                    \n\t                    <td>46</td>\n\t                    \n\t                    <td>Photorhabdus asymbiotica ATCC43949 complete genome...</td>\n\t                    \n\t                    <td>NC_012962.1.cluster013.gbk</td>\n\t                    \n\t            </tr>\n\t            <tr>\n\t                <td>4342</td>\n\t                \n\t                    <td>val</td>\n\t                    \n\t                    <td>EYKEQISNINRVEE</td>\n\t                    \n\t                    <td>phe</td>\n\t                    \n\t                    <td>14</td>\n\t                    \n\t                    <td>Clostridium beijerinckii strain BGS1 Scaffold7, wh...</td>\n\t                    \n\t                    <td>NZ_MBAF01000001.1.cluster002.gbk</td>\n\t                    \n\t            </tr>\n\t            <tr>\n\t                <td>4845</td>\n\t                \n\t                    <td>val</td>\n\t                    \n\t                    <td>VRAAKRPPLTAAVPR</td>\n\t                    \n\t                    <td>phe</td>\n\t                    \n\t                    <td>15</td>\n\t                    \n\t                    <td>Streptomyces ghanaensis ATCC 14672 supercont1.1, w...</td>\n\t                    \n\t                    <td>NZ_DS999643.1.cluster004.gbk</td>\n\t                    \n\t            </tr>\n\t            <tr>\n\t                <td>4966</td>\n\t                \n\t                    <td>val</td>\n\t                    \n\t                    <td>QDHISDVIKFTKDTLRRIPRKGIGYGMLRYLSPFDLKVIRNPDISFNYLG...</td>\n\t                    \n\t                    <td>phe</td>\n\t                    \n\t                    <td>160</td>\n\t                    \n\t                    <td>Paenibacillus alvei A6-6i-x PAAL66ix_27, whole gen...</td>\n\t                    \n\t                    <td>NZ_ATMS01000001.1.cluster010.gbk</td>\n\t                    \n\t            </tr>\n\t            <tr>\n\t                <td>5368</td>\n\t                \n\t                    <td>val</td>\n\t                    \n\t                    <td>GAAPAVPVPANRIGEGCARITPELLPLATLTQPAIDRIVAGVPGGVAN</td>\n\t                    \n\t                    <td>phe</td>\n\t                    \n\t                    <td>48</td>\n\t                    \n\t                    <td>Burkholderia gladioli BSR3 chromosome 2, complete ...</td>\n\t                    \n\t                    <td>NC_015381.1.cluster004.gbk</td>\n\t                    \n\t            </tr>\n\t            <tr>\n\t                <td>6297</td>\n\t                \n\t                    <td>val</td>\n\t                    \n\t                    <td>GSTLRPALQVKPR</td>\n\t                    \n\t                    <td>phe</td>\n\t                    \n\t                    <td>13</td>\n\t                    \n\t                    <td>Photorhabdus heterorhabditis strain VMG contig006,...</td>\n\t                    \n\t                    <td>NZ_LJCS01000001.1.cluster004.gbk</td>\n\t                    \n\t            </tr>\n\t            <tr>\n\t                <td>6532</td>\n\t                \n\t                    <td>val</td>\n\t                    \n\t                    <td>TGADVDTIAPAPRE</td>\n\t                    \n\t                    <td>phe</td>\n\t                    \n\t                    <td>14</td>\n\t                    \n\t                    <td>Streptomyces sampsonii strain KJ40, complete genom...</td>\n\t                    \n\t                    <td>NZ_CP016824.1.cluster003.gbk</td>\n\t                    \n\t            </tr>\n\t            <tr>\n\t                <td>7343</td>\n\t                \n\t                    <td>val</td>\n\t                    \n\t                    <td>QIVVVPPNVITPTTTALTPAMLPLIDLTQPEIDHIVEQVPGGVVN</td>\n\t                    \n\t                    <td>phe</td>\n\t                    \n\t                    <td>45</td>\n\t                    \n\t                    <td>Photorhabdus luminescens NBAII HiPL101 Chromous2_r...</td>\n\t                    \n\t                    <td>NZ_JTHJ02000001.1.cluster008.gbk</td>\n\t                    \n\t            </tr>\n\t            <tr>\n\t                <td>7364</td>\n\t                \n\t                    <td>val</td>\n\t                    \n\t                    <td>HQIVTVPPNVITPATTALTPEMLPLIDLTQPEIDHIVEQVPGGGAN</td>\n\t                    \n\t                    <td>phe</td>\n\t                    \n\t                    <td>46</td>\n\t                    \n\t                    <td>Photorhabdus luminescens subsp. laumondii TTO1 com...</td>\n\t                    \n\t                    <td>NC_005126.1.cluster009.gbk</td>\n\t                    \n\t            </tr>\n\t            <tr>\n\t                <td>7979</td>\n\t                \n\t                    <td>val</td>\n\t                    \n\t                    <td>VRAAKRPPLTAAVPR</td>\n\t                    \n\t                    <td>phe</td>\n\t                    \n\t                    <td>15</td>\n\t                    \n\t                    <td>Streptomyces viridosporus T7A StrvirDRAFT_SVC.3, w...</td>\n\t                    \n\t                    <td>NZ_JH993787.1.cluster002.gbk</td>\n\t                    \n\t            </tr>\n\t            <tr>\n\t                <td>8005</td>\n\t                \n\t                    <td>val</td>\n\t                    \n\t                    <td>DKQNYPVISKARKQ</td>\n\t                    \n\t                    <td>phe</td>\n\t                    \n\t                    <td>14</td>\n\t                    \n\t                    <td>Bacillus velezensis strain CFSAN034339 NODE_8_leng...</td>\n\t                    \n\t                    <td>NZ_LYNB01000001.1.cluster010.gbk</td>\n\t                    \n\t            </tr>\n\t            <tr>\n\t                <td>9174</td>\n\t                \n\t                    <td>val</td>\n\t                    \n\t                    <td>RFIKPGRILPAIVPLSR</td>\n\t                    \n\t                    <td>phe</td>\n\t                    \n\t                    <td>17</td>\n\t                    \n\t                    <td>Photorhabdus temperata subsp. thracensis strain DS...</td>\n\t                    \n\t                    <td>NZ_CP011104.1.cluster003.gbk</td>\n\t                    \n\t            </tr>\n\t            <tr>\n\t                <td>9934</td>\n\t                \n\t                    <td>val</td>\n\t                    \n\t                    <td>INREDDISGHIKRMKEMLRSIPHKGIGYGIWRYLSQNGPSGATYAEPQIS...</td>\n\t                    \n\t                    <td>phe</td>\n\t                    \n\t                    <td>167</td>\n\t                    \n\t                    <td>Paenibacillus polymyxa strain YC0573, complete gen...</td>\n\t                    \n\t                    <td>NZ_CP017968.2.cluster005.gbk</td>\n\t                    \n\t            </tr>\n\t            <tr>\n\t                <td>9938</td>\n\t                \n\t                    <td>val</td>\n\t                    \n\t                    <td>DKQNYPVISKARKQ</td>\n\t                    \n\t                    <td>phe</td>\n\t                    \n\t                    <td>14</td>\n\t                    \n\t                    <td>Bacillus amyloliquefaciens strain 11B91 contig_9, ...</td>\n\t                    \n\t                    <td>NZ_LPUP01000011.1.cluster005.gbk</td>\n\t                    \n\t            </tr>\n\t            <tr>\n\t                <td>10332</td>\n\t                \n\t                    <td>val</td>\n\t                    \n\t                    <td>HQSVAVPPNAITPAATALTPAMLPLIDLTQPEIDHIVGRVPGGISN</td>\n\t                    \n\t                    <td>phe</td>\n\t                    \n\t                    <td>46</td>\n\t                    \n\t                    <td>Xenorhabdus doucetiae str. FRM16 chromosome, compl...</td>\n\t                    \n\t                    <td>NZ_FO704550.1.cluster009.gbk</td>\n\t                    \n\t            </tr>\n\t            <tr>\n\t                <td>10361</td>\n\t                \n\t                    <td>val</td>\n\t                    \n\t                    <td>QIVVVPPNVITPTTTALTPAMLPLIDLTQPEIDHIVEQVPGGVVN</td>\n\t                    \n\t                    <td>phe</td>\n\t                    \n\t                    <td>45</td>\n\t                    \n\t                    <td>Photorhabdus luminescens strain LN2 Scaffold12, wh...</td>\n\t                    \n\t                    <td>NZ_JQOC01000001.1.cluster006.gbk</td>\n\t                    \n\t            </tr>\n\t            <tr>\n\t                <td>10938</td>\n\t                \n\t                    <td>val</td>\n\t                    \n\t                    <td>RASDGAALPAITPVSRD</td>\n\t                    \n\t                    <td>phe</td>\n\t                    \n\t                    <td>17</td>\n\t                    \n\t                    <td>Burkholderia rhizoxinica HKI 454 plasmid pBRH01, c...</td>\n\t                    \n\t                    <td>NC_014722.1.cluster011.gbk</td>\n\t                    \n\t            </tr>\n\t            <tr>\n\t                <td>11336</td>\n\t                \n\t                    <td>val</td>\n\t                    \n\t                    <td>SKASVSDLIISTKDTLRRVPRNGIGYGMLKYVSPFELKSIRKPDVCFKYV...</td>\n\t                    \n\t                    <td>phe</td>\n\t                    \n\t                    <td>161</td>\n\t                    \n\t                    <td>Paenibacillus taiwanensis DSM 18679 genomic scaffo...</td>\n\t                    \n\t                    <td>NZ_KE384306.1.cluster002.gbk</td>\n\t                    \n\t            </tr>\n\t            <tr>\n\t                <td>12510</td>\n\t                \n\t                    <td>val</td>\n\t                    \n\t                    <td>INREDDISGHIKRIKEMLRSIPHKGIGYGIWRYLSQNRPSGATYAEPQIS...</td>\n\t                    \n\t                    <td>phe</td>\n\t                    \n\t                    <td>167</td>\n\t                    \n\t                    <td>Paenibacillus polymyxa E681, complete genome.</td>\n\t                    \n\t                    <td>NC_014483.2.cluster003.gbk</td>\n\t                    \n\t            </tr>\n\t            <tr>\n\t                <td>13061</td>\n\t                \n\t                    <td>val</td>\n\t                    \n\t                    <td>LATTSDADESRSLILAGCTAITPDMVPLAALGQVELNDIAAEISGGMAN</td>\n\t                    \n\t                    <td>phe</td>\n\t                    \n\t                    <td>49</td>\n\t                    \n\t                    <td>Pseudoalteromonas rubra strain OCN096 seq.20.hoi, ...</td>\n\t                    \n\t                    <td>NZ_LFZX01000001.1.cluster009.gbk</td>\n\t                    \n\t            </tr>\n\t            <tr>\n\t                <td>13144</td>\n\t                \n\t                    <td>val</td>\n\t                    \n\t                    <td>RKNLFIPISPASMSAS</td>\n\t                    \n\t                    <td>phe</td>\n\t                    \n\t                    <td>16</td>\n\t                    \n\t                    <td>Niastella koreensis GR20-10, complete genome.</td>\n\t                    \n\t                    <td>NC_016609.1.cluster001.gbk</td>\n\t                    \n\t            </tr>\n\t            <tr>\n\t                <td>14022</td>\n\t                \n\t                    <td>val</td>\n\t                    \n\t                    <td>VQEQNYEVIPEAIV</td>\n\t                    \n\t                    <td>phe</td>\n\t                    \n\t                    <td>14</td>\n\t                    \n\t                    <td>Staphylococcus aureus OCMM6004 genomic scaffold ad...</td>\n\t                    \n\t                    <td>NZ_KI975719.1.cluster001.gbk</td>\n\t                    \n\t            </tr>\n\t            <tr>\n\t                <td>15509</td>\n\t                \n\t                    <td>val</td>\n\t                    \n\t                    <td>DKQNYPVIGQAREK</td>\n\t                    \n\t                    <td>phe</td>\n\t                    \n\t                    <td>14</td>\n\t                    \n\t                    <td>Bacillus amyloliquefaciens strain RD7-7, complete ...</td>\n\t                    \n\t                    <td>NZ_CP016913.1.cluster001.gbk</td>\n\t                    \n\t            </tr>\n\t            <tr>\n\t                <td>16044</td>\n\t                \n\t                    <td>val</td>\n\t                    \n\t                    <td>LATTSDADESRSLIPAGCTAITPDMVPLAALSQTELNDIAAEIPGGMAN</td>\n\t                    \n\t                    <td>phe</td>\n\t                    \n\t                    <td>49</td>\n\t                    \n\t                    <td>Pseudoalteromonas rubra strain SCSIO 6842 chromoso...</td>\n\t                    \n\t                    <td>NZ_CP013611.1.cluster003.gbk</td>\n\t                    \n\t            </tr>\n\t            <tr>\n\t                <td>17174</td>\n\t                \n\t                    <td>val</td>\n\t                    \n\t                    <td>PDKAALADVIKHVKEELRNVPDKGLGYGALRYLNNDENIQQTLASVEWDI...</td>\n\t                    \n\t                    <td>phe</td>\n\t                    \n\t                    <td>173</td>\n\t                    \n\t                    <td>Aquimarina longa SW024 genomic scaffold scaffold9,...</td>\n\t                    \n\t                    <td>NZ_KQ474099.1.cluster005.gbk</td>\n\t                    \n\t            </tr>\n\t            <tr>\n\t                <td>18201</td>\n\t                \n\t                    <td>val</td>\n\t                    \n\t                    <td>HQIMAVPPNVITSGTTELTPAMLPLIDLTQPEIDRIVEQVPGGVVN</td>\n\t                    \n\t                    <td>phe</td>\n\t                    \n\t                    <td>46</td>\n\t                    \n\t                    <td>Photorhabdus luminescens subsp. luminescens strain...</td>\n\t                    \n\t                    <td>NZ_JXSK01000001.1.cluster010.gbk</td>\n\t                    \n\t            </tr>\n\t            <tr>\n\t                <td>20803</td>\n\t                \n\t                    <td>val</td>\n\t                    \n\t                    <td>QPTRPRLCQGERPP</td>\n\t                    \n\t                    <td>phe</td>\n\t                    \n\t                    <td>14</td>\n\t                    \n\t                    <td>Enterobacter cloacae S611 EDP2.NODE_1920, whole ge...</td>\n\t                    \n\t                    <td>NZ_AXOM01000003.1.cluster002.gbk</td>\n\t                    \n\t            </tr>\n\t            <tr>\n\t                <td>20970</td>\n\t                \n\t                    <td>val</td>\n\t                    \n\t                    <td>SSGAILPPILPLEPDA</td>\n\t                    \n\t                    <td>phe</td>\n\t                    \n\t                    <td>16</td>\n\t                    \n\t                    <td>Xanthomonas albilineans GPE PC73 complete genome.</td>\n\t                    \n\t                    <td>NC_013722.1.cluster005.gbk</td>\n\t                    \n\t            </tr>\n\t            <tr>\n\t                <td>24262</td>\n\t                \n\t                    <td>val</td>\n\t                    \n\t                    <td>QAVVVPPNIITLTTTALTPEMLPLIALTQPEIDHIVEQMPGGITN</td>\n\t                    \n\t                    <td>phe</td>\n\t                    \n\t                    <td>45</td>\n\t                    \n\t                    <td>Photorhabdus temperata subsp. khanii NC19 PTE_gnl_...</td>\n\t                    \n\t                    <td>NZ_AYSJ01000001.1.cluster012.gbk</td>\n\t                    \n\t            </tr>\n\t            <tr>\n\t                <td>24543</td>\n\t                \n\t                    <td>val</td>\n\t                    \n\t                    <td>HQIMAVRPNVITPATTALTPAMLPLIDLTQPDIDHIVEQVPGGVVN</td>\n\t                    \n\t                    <td>phe</td>\n\t                    \n\t                    <td>46</td>\n\t                    \n\t                    <td>Photorhabdus luminescens strain PB45.5 Phpb_contig...</td>\n\t                    \n\t                    <td>NZ_LOIC01000001.1.cluster004.gbk</td>\n\t                    \n\t            </tr>\n\t            <tr>\n\t                <td>24660</td>\n\t                \n\t                    <td>val</td>\n\t                    \n\t                    <td>HQSVVLPPNVITPMTTTLTPEMLPLIDLTQPDIDRIVEQVPGGIAN</td>\n\t                    \n\t                    <td>phe</td>\n\t                    \n\t                    <td>46</td>\n\t                    \n\t                    <td>Photorhabdus asymbiotica subsp. australis DSM 1760...</td>\n\t                    \n\t                    <td>NZ_KL543985.1.cluster003.gbk</td>\n\t                    \n\t            </tr>\n\t            <tr>\n\t                <td>25416</td>\n\t                \n\t                    <td>val</td>\n\t                    \n\t                    <td>TGADADTIAPAPRE</td>\n\t                    \n\t                    <td>phe</td>\n\t                    \n\t                    <td>14</td>\n\t                    \n\t                    <td>Streptomyces sp. GBA 94-10 chromosome, whole genom...</td>\n\t                    \n\t                    <td>NZ_CM002271.1.cluster006.gbk</td>\n\t                    \n\t            </tr>\n\t            <tr>\n\t                <td>25551</td>\n\t                \n\t                    <td>val</td>\n\t                    \n\t                    <td>KDTLSDLIKDTKDTLRRIPHKGIGYGILKYLSPFELKDTRTPDISFNYLG...</td>\n\t                    \n\t                    <td>phe</td>\n\t                    \n\t                    <td>160</td>\n\t                    \n\t                    <td>Paenibacillus panacisoli DSM 21345 K331DRAFT_scaff...</td>\n\t                    \n\t                    <td>NZ_AUFO01000001.1.cluster005.gbk</td>\n\t                    \n\t            </tr>\n\t            <tr>\n\t                <td>25758</td>\n\t                \n\t                    <td>val</td>\n\t                    \n\t                    <td>QPTRPRLCQGERPP</td>\n\t                    \n\t                    <td>phe</td>\n\t                    \n\t                    <td>14</td>\n\t                    \n\t                    <td>Klebsiella cf. planticola B43 DNA, contig: IB043.C...</td>\n\t                    \n\t                    <td>NZ_BADH01000836.1.cluster001.gbk</td>\n\t                    \n\t            </tr>\n\t            <tr>\n\t                <td>26502</td>\n\t                \n\t                    <td>val</td>\n\t                    \n\t                    <td>GAAPAVPVPANRIGEGCARITPELLPLATLTQPAIDRIVAGVPGGVAN</td>\n\t                    \n\t                    <td>phe</td>\n\t                    \n\t                    <td>48</td>\n\t                    \n\t                    <td>Burkholderia gladioli strain UCD-UG_CHAPALOTE scaf...</td>\n\t                    \n\t                    <td>NZ_KN150997.1.cluster010.gbk</td>\n\t                    \n\t            </tr>\n\t            <tr>\n\t                <td>28548</td>\n\t                \n\t                    <td>val</td>\n\t                    \n\t                    <td>PDDTPRPQLRPTPRP</td>\n\t                    \n\t                    <td>phe</td>\n\t                    \n\t                    <td>15</td>\n\t                    \n\t                    <td>Enterobacteriaceae bacterium LSJC7 Scaffold1_3, wh...</td>\n\t                    \n\t                    <td>NZ_AMFN01000001.1.cluster003.gbk</td>\n\t                    \n\t            </tr>\n\t            <tr>\n\t                <td>30817</td>\n\t                \n\t                    <td>val</td>\n\t                    \n\t                    <td>QYINNDLEEYKIIHGAK</td>\n\t                    \n\t                    <td>phe</td>\n\t                    \n\t                    <td>17</td>\n\t                    \n\t                    <td>Enterococcus faecalis strain 1138_EFLS 159_91472_1...</td>\n\t                    \n\t                    <td>NZ_JWBU01000023.1.cluster001.gbk</td>\n\t                    \n\t            </tr>\n\t            <tr>\n\t                <td>31387</td>\n\t                \n\t                    <td>val</td>\n\t                    \n\t                    <td>HQVVTVPPNFITATTTALTPAILPLIDLTQPDIDHIVGQVPGGAAN</td>\n\t                    \n\t                    <td>phe</td>\n\t                    \n\t                    <td>46</td>\n\t                    \n\t                    <td>Xenorhabdus nematophila ATCC 19061 chromosome, com...</td>\n\t                    \n\t                    <td>NC_014228.1.cluster003.gbk</td>\n\t                    \n\t            </tr>\n\t            <tr>\n\t                <td>31529</td>\n\t                \n\t                    <td>val</td>\n\t                    \n\t                    <td>TGTDADTIAPAPRE</td>\n\t                    \n\t                    <td>phe</td>\n\t                    \n\t                    <td>14</td>\n\t                    \n\t                    <td>Streptomyces sp. CNY228 genomic scaffold D330DRAFT...</td>\n\t                    \n\t                    <td>NZ_KB898221.1.cluster007.gbk</td>\n\t                    \n\t            </tr>\n\t            <tr>\n\t                <td>32806</td>\n\t                \n\t                    <td>val</td>\n\t                    \n\t                    <td>AGTDAGALTPAPRD</td>\n\t                    \n\t                    <td>phe</td>\n\t                    \n\t                    <td>14</td>\n\t                    \n\t                    <td>Streptomyces sp. KE1 Contig23, whole genome shotgu...</td>\n\t                    \n\t                    <td>NZ_LAYX01000001.1.cluster004.gbk</td>\n\t                    \n\t            </tr>\n\t            <tr>\n\t                <td>32993</td>\n\t                \n\t                    <td>val</td>\n\t                    \n\t                    <td>AAGDGAAPGVPENRIEADCTRLTPELLPLAPRLTQAGIDRIVASVPGGLA...</td>\n\t                    \n\t                    <td>phe</td>\n\t                    \n\t                    <td>51</td>\n\t                    \n\t                    <td>Burkholderia glumae BGR1 chromosome 2, complete se...</td>\n\t                    \n\t                    <td>NC_012724.2.cluster004.gbk</td>\n\t                    \n\t            </tr>\n\t            <tr>\n\t                <td>33239</td>\n\t                \n\t                    <td>val</td>\n\t                    \n\t                    <td>TGADADTIAPAPRE</td>\n\t                    \n\t                    <td>phe</td>\n\t                    \n\t                    <td>14</td>\n\t                    \n\t                    <td>Streptomyces sp. PVA 94-07 chromosome, whole genom...</td>\n\t                    \n\t                    <td>NZ_CM002273.1.cluster007.gbk</td>\n\t                    \n\t            </tr>\n\t            <tr>\n\t                <td>34884</td>\n\t                \n\t                    <td>val</td>\n\t                    \n\t                    <td>SALRPALQVKPRPE</td>\n\t                    \n\t                    <td>phe</td>\n\t                    \n\t                    <td>14</td>\n\t                    \n\t                    <td>Photorhabdus luminescens subsp. luminescens strain...</td>\n\t                    \n\t                    <td>NZ_JXSK01000001.1.cluster008.gbk</td>\n\t                    \n\t            </tr>\n\t            <tr>\n\t                <td>34892</td>\n\t                \n\t                    <td>val</td>\n\t                    \n\t                    <td>STLRPALQVKPRPE</td>\n\t                    \n\t                    <td>phe</td>\n\t                    \n\t                    <td>14</td>\n\t                    \n\t                    <td>Photorhabdus temperata subsp. khanii NC19 PTE_gnl_...</td>\n\t                    \n\t                    <td>NZ_AYSJ01000001.1.cluster006.gbk</td>\n\t                    \n\t            </tr>\n\t            <tr>\n\t                <td>38146</td>\n\t                \n\t                    <td>val</td>\n\t                    \n\t                    <td>GAAPAVPVPANRIGEGCARITPELLPLATLSQAAIDRIVAGVPGGVAN</td>\n\t                    \n\t                    <td>phe</td>\n\t                    \n\t                    <td>48</td>\n\t                    \n\t                    <td>Burkholderia gladioli strain ATCC 10248 chromosome...</td>\n\t                    \n\t                    <td>NZ_CP009323.1.cluster004.gbk</td>\n\t                    \n\t            </tr>\n\t            <tr>\n\t                <td>38710</td>\n\t                \n\t                    <td>val</td>\n\t                    \n\t                    <td>GRRPEVGPRQR</td>\n\t                    \n\t                    <td>phe</td>\n\t                    \n\t                    <td>11</td>\n\t                    \n\t                    <td>Nocardiopsis sp. CNS-639 strain CNS639 G011DRAFT_s...</td>\n\t                    \n\t                    <td>NZ_KB906854.1.cluster006.gbk</td>\n\t                    \n\t            </tr>\n\t            <tr>\n\t                <td>38761</td>\n\t                \n\t                    <td>val</td>\n\t                    \n\t                    <td>QIVVVPPNVITPTTTALTPAMLPLIDLTQPEIDHIVEQVPGGVVN</td>\n\t                    \n\t                    <td>phe</td>\n\t                    \n\t                    <td>45</td>\n\t                    \n\t                    <td>Photorhabdus luminescens strain NBAII Hb105 Chromo...</td>\n\t                    \n\t                    <td>NZ_JXUR02000001.1.cluster023.gbk</td>\n\t                    \n\t            </tr>\n\t            <tr>\n\t                <td>38813</td>\n\t                \n\t                    <td>val</td>\n\t                    \n\t                    <td>VASSAQPALVRGER</td>\n\t                    \n\t                    <td>phe</td>\n\t                    \n\t                    <td>14</td>\n\t                    \n\t                    <td>Kutzneria sp. 744 supercont1.1, whole genome shotg...</td>\n\t                    \n\t                    <td>NZ_KK037166.1.cluster002.gbk</td>\n\t                    \n\t            </tr>\n\t            <tr>\n\t                <td>634</td>\n\t                \n\t                    <td>pro</td>\n\t                    \n\t                    <td>ATTTHAIIPVADR</td>\n\t                    \n\t                    <td>val</td>\n\t                    \n\t                    <td>13</td>\n\t                    \n\t                    <td>Xenorhabdus nematophila AN6/1 genome assembly XNC2...</td>\n\t                    \n\t                    <td>NZ_LN681227.1.cluster003.gbk</td>\n\t                    \n\t            </tr>\n\t            <tr>\n\t                <td>5476</td>\n\t                \n\t                    <td>pro</td>\n\t                    \n\t                    <td>LIRAGASQVMPPLSRRLDRTRP</td>\n\t                    \n\t                    <td>val</td>\n\t                    \n\t                    <td>22</td>\n\t                    \n\t                    <td>Myxococcus stipitatus DSM 14675, complete genome.</td>\n\t                    \n\t                    <td>NC_020126.1.cluster007.gbk</td>\n\t                    \n\t            </tr>\n\t            <tr>\n\t                <td>9687</td>\n\t                \n\t                    <td>pro</td>\n\t                    \n\t                    <td>EEDVRKAIQPAGKKP</td>\n\t                    \n\t                    <td>val</td>\n\t                    \n\t                    <td>15</td>\n\t                    \n\t                    <td>Paenibacillus sp. Soil787 contig_9, whole genome s...</td>\n\t                    \n\t                    <td>NZ_LMSP01000001.1.cluster001.gbk</td>\n\t                    \n\t            </tr>\n\t            <tr>\n\t                <td>10977</td>\n\t                \n\t                    <td>pro</td>\n\t                    \n\t                    <td>AEGRAFEALVPAPA</td>\n\t                    \n\t                    <td>val</td>\n\t                    \n\t                    <td>14</td>\n\t                    \n\t                    <td>Paenibacillus alvei A6-6i-x PAAL66ix_26, whole gen...</td>\n\t                    \n\t                    <td>NZ_ATMS01000001.1.cluster008.gbk</td>\n\t                    \n\t            </tr>\n\t            <tr>\n\t                <td>11433</td>\n\t                \n\t                    <td>pro</td>\n\t                    \n\t                    <td>GGIEIEVPANGIPEGCRHITPDMLTLTALDQASIERIVADIPGGAAN</td>\n\t                    \n\t                    <td>val</td>\n\t                    \n\t                    <td>47</td>\n\t                    \n\t                    <td>Pseudomonas syringae ICMP 13102 scaffold62, whole ...</td>\n\t                    \n\t                    <td>NZ_LKEO01000001.1.cluster010.gbk</td>\n\t                    \n\t            </tr>\n\t            <tr>\n\t                <td>11908</td>\n\t                \n\t                    <td>pro</td>\n\t                    \n\t                    <td>GGIEIEVPANGIPDGCEHITPDMLTLTSLDQGTIDRIVAGVPGGAPN</td>\n\t                    \n\t                    <td>val</td>\n\t                    \n\t                    <td>47</td>\n\t                    \n\t                    <td>Pseudomonas syringae BRIP39023 genomic scaffold sc...</td>\n\t                    \n\t                    <td>NZ_KB316288.1.cluster002.gbk</td>\n\t                    \n\t            </tr>\n\t            <tr>\n\t                <td>12226</td>\n\t                \n\t                    <td>pro</td>\n\t                    \n\t                    <td>GGIEIEVPANGIPEGCKHITPDMLTLTTLDQASIERIVAGVPGGAAN</td>\n\t                    \n\t                    <td>val</td>\n\t                    \n\t                    <td>47</td>\n\t                    \n\t                    <td>Pseudomonas congelans strain ICMP19117 PcoICMP1911...</td>\n\t                    \n\t                    <td>NZ_LJQB01000076.1.cluster003.gbk</td>\n\t                    \n\t            </tr>\n\t            <tr>\n\t                <td>15004</td>\n\t                \n\t                    <td>pro</td>\n\t                    \n\t                    <td>GGIEIEVPANGIPEGCRHITPDMLTLTALDQASIERILADIPGGAAN</td>\n\t                    \n\t                    <td>val</td>\n\t                    \n\t                    <td>47</td>\n\t                    \n\t                    <td>Pseudomonas syringae pv. syringae PD2774 scaffold5...</td>\n\t                    \n\t                    <td>NZ_LKEL01000001.1.cluster009.gbk</td>\n\t                    \n\t            </tr>\n\t            <tr>\n\t                <td>15726</td>\n\t                \n\t                    <td>pro</td>\n\t                    \n\t                    <td>AGRADDSAIALADRS</td>\n\t                    \n\t                    <td>val</td>\n\t                    \n\t                    <td>15</td>\n\t                    \n\t                    <td>Lysobacter antibioticus strain 13-6 Contig_92, who...</td>\n\t                    \n\t                    <td>NZ_JMTZ01000001.1.cluster009.gbk</td>\n\t                    \n\t            </tr>\n\t            <tr>\n\t                <td>15796</td>\n\t                \n\t                    <td>pro</td>\n\t                    \n\t                    <td>GAKKESYVAIQPVPE</td>\n\t                    \n\t                    <td>val</td>\n\t                    \n\t                    <td>15</td>\n\t                    \n\t                    <td>Aneurinibacillus migulanus strain nagano contig_39...</td>\n\t                    \n\t                    <td>NZ_JYBN01000001.1.cluster002.gbk</td>\n\t                    \n\t            </tr>\n\t            <tr>\n\t                <td>17046</td>\n\t                \n\t                    <td>pro</td>\n\t                    \n\t                    <td>TTVTQAIIPVADRS</td>\n\t                    \n\t                    <td>val</td>\n\t                    \n\t                    <td>14</td>\n\t                    \n\t                    <td>Xenorhabdus doucetiae str. FRM16 chromosome, compl...</td>\n\t                    \n\t                    <td>NZ_FO704550.1.cluster005.gbk</td>\n\t                    \n\t            </tr>\n\t            <tr>\n\t                <td>18548</td>\n\t                \n\t                    <td>pro</td>\n\t                    \n\t                    <td>LRGARLPLQALPR</td>\n\t                    \n\t                    <td>val</td>\n\t                    \n\t                    <td>13</td>\n\t                    \n\t                    <td>Methylobacter tundripaludum 31/32 T449DRAFT_scf718...</td>\n\t                    \n\t                    <td>NZ_JPOH01000001.1.cluster003.gbk</td>\n\t                    \n\t            </tr>\n\t            <tr>\n\t                <td>19260</td>\n\t                \n\t                    <td>pro</td>\n\t                    \n\t                    <td>GGIEIDVPANGIPDGCTHIIPDMLTLTTLDPASIERIVAGVSGGAAN</td>\n\t                    \n\t                    <td>val</td>\n\t                    \n\t                    <td>47</td>\n\t                    \n\t                    <td>Pseudomonas syringae pv. syringae B728a chromosome...</td>\n\t                    \n\t                    <td>NC_007005.1.cluster005.gbk</td>\n\t                    \n\t            </tr>\n\t            <tr>\n\t                <td>20363</td>\n\t                \n\t                    <td>pro</td>\n\t                    \n\t                    <td>NTTLMDNATLTEHDTLTDHAIEMQAVIPVADR</td>\n\t                    \n\t                    <td>val</td>\n\t                    \n\t                    <td>32</td>\n\t                    \n\t                    <td>Xenorhabdus szentirmaii DSM 16338 WGS project CBXF...</td>\n\t                    \n\t                    <td>NZ_CBXF010000001.1.cluster016.gbk</td>\n\t                    \n\t            </tr>\n\t            <tr>\n\t                <td>20695</td>\n\t                \n\t                    <td>pro</td>\n\t                    \n\t                    <td>GAKKESYVAIQPVPE</td>\n\t                    \n\t                    <td>val</td>\n\t                    \n\t                    <td>15</td>\n\t                    \n\t                    <td>Aneurinibacillus migulanus strain NCTC 7096 contig...</td>\n\t                    \n\t                    <td>NZ_JYBO01000001.1.cluster002.gbk</td>\n\t                    \n\t            </tr>\n\t            <tr>\n\t                <td>21238</td>\n\t                \n\t                    <td>pro</td>\n\t                    \n\t                    <td>GGIEIEVPANGIPEGCKHITPDMLTLTTLDQASIERIVAGVPGGAAN</td>\n\t                    \n\t                    <td>val</td>\n\t                    \n\t                    <td>47</td>\n\t                    \n\t                    <td>Pseudomonas syringae pv. syringae B64 chromosome, ...</td>\n\t                    \n\t                    <td>NZ_CM001763.1.cluster004.gbk</td>\n\t                    \n\t            </tr>\n\t            <tr>\n\t                <td>22691</td>\n\t                \n\t                    <td>pro</td>\n\t                    \n\t                    <td>GGIEIEVPANGIPEGCKHITPDMLTLTTLDQASIERIVAGVPGGAAN</td>\n\t                    \n\t                    <td>val</td>\n\t                    \n\t                    <td>47</td>\n\t                    \n\t                    <td>Pseudomonas syringae pv. atrofaciens strain ICMP43...</td>\n\t                    \n\t                    <td>NZ_LJPO01000184.1.cluster017.gbk</td>\n\t                    \n\t            </tr>\n\t            <tr>\n\t                <td>23355</td>\n\t                \n\t                    <td>pro</td>\n\t                    \n\t                    <td>GCGIEIEVPANGIPEGCRHITPDMLTLTALDQASIERIVAGVPGGAAN</td>\n\t                    \n\t                    <td>val</td>\n\t                    \n\t                    <td>48</td>\n\t                    \n\t                    <td>Pseudomonas syringae strain B576 contig_11, whole ...</td>\n\t                    \n\t                    <td>NZ_JRUO01000010.1.cluster001.gbk</td>\n\t                    \n\t            </tr>\n\t            <tr>\n\t                <td>24308</td>\n\t                \n\t                    <td>pro</td>\n\t                    \n\t                    <td>GGIEIEVPANGIPEGCKHITPDMLTLTTLDQASIERIVAGVPGGAAN</td>\n\t                    \n\t                    <td>val</td>\n\t                    \n\t                    <td>47</td>\n\t                    \n\t                    <td>Pseudomonas syringae BRIP34876 genomic scaffold sc...</td>\n\t                    \n\t                    <td>NZ_KB316432.1.cluster016.gbk</td>\n\t                    \n\t            </tr>\n\t            <tr>\n\t                <td>28061</td>\n\t                \n\t                    <td>pro</td>\n\t                    \n\t                    <td>GCGIEIEVPANGIPEGCRHITPDMLTLTALDQASIERIVAGVPGGAAN</td>\n\t                    \n\t                    <td>val</td>\n\t                    \n\t                    <td>48</td>\n\t                    \n\t                    <td>Pseudomonas syringae pv. aptata strain ICMP459 Ptt...</td>\n\t                    \n\t                    <td>NZ_LJRP01000083.1.cluster011.gbk</td>\n\t                    \n\t            </tr>\n\t            <tr>\n\t                <td>28321</td>\n\t                \n\t                    <td>pro</td>\n\t                    \n\t                    <td>AGRADDSAIAVADRN</td>\n\t                    \n\t                    <td>val</td>\n\t                    \n\t                    <td>15</td>\n\t                    \n\t                    <td>Lysobacter antibioticus strain 76, complete genome...</td>\n\t                    \n\t                    <td>NZ_CP011129.1.cluster004.gbk</td>\n\t                    \n\t            </tr>\n\t            <tr>\n\t                <td>29280</td>\n\t                \n\t                    <td>pro</td>\n\t                    \n\t                    <td>AGRADDSTIAVADRD</td>\n\t                    \n\t                    <td>val</td>\n\t                    \n\t                    <td>15</td>\n\t                    \n\t                    <td>Lysobacter antibioticus strain ATCC 29479 genome.</td>\n\t                    \n\t                    <td>NZ_CP013141.1.cluster002.gbk</td>\n\t                    \n\t            </tr>\n\t            <tr>\n\t                <td>29716</td>\n\t                \n\t                    <td>pro</td>\n\t                    \n\t                    <td>LRGARLPLQALPR</td>\n\t                    \n\t                    <td>val</td>\n\t                    \n\t                    <td>13</td>\n\t                    \n\t                    <td>Methylobacter tundripaludum SV96 genomic scaffold ...</td>\n\t                    \n\t                    <td>NZ_JH109152.1.cluster003.gbk</td>\n\t                    \n\t            </tr>\n\t            <tr>\n\t                <td>31393</td>\n\t                \n\t                    <td>pro</td>\n\t                    \n\t                    <td>ATTTHAIIPVADR</td>\n\t                    \n\t                    <td>val</td>\n\t                    \n\t                    <td>13</td>\n\t                    \n\t                    <td>Xenorhabdus nematophila ATCC 19061 chromosome, com...</td>\n\t                    \n\t                    <td>NC_014228.1.cluster003.gbk</td>\n\t                    \n\t            </tr>\n\t            <tr>\n\t                <td>34098</td>\n\t                \n\t                    <td>pro</td>\n\t                    \n\t                    <td>GAKKESYVAIQPVPE</td>\n\t                    \n\t                    <td>val</td>\n\t                    \n\t                    <td>15</td>\n\t                    \n\t                    <td>Aneurinibacillus migulanus strain DSM 2895 super7,...</td>\n\t                    \n\t                    <td>NZ_LGUG01000012.1.cluster002.gbk</td>\n\t                    \n\t            </tr>\n\t            <tr>\n\t                <td>34128</td>\n\t                \n\t                    <td>pro</td>\n\t                    \n\t                    <td>GGIEIEVPANGIPDGCEHITPDMLTLTSLDQGTIDRIVAGVPGGAAN</td>\n\t                    \n\t                    <td>val</td>\n\t                    \n\t                    <td>47</td>\n\t                    \n\t                    <td>Pseudomonas syringae UMAF0158, complete genome.</td>\n\t                    \n\t                    <td>NZ_CP005970.1.cluster002.gbk</td>\n\t                    \n\t            </tr>\n\t            <tr>\n\t                <td>37100</td>\n\t                \n\t                    <td>pro</td>\n\t                    \n\t                    <td>GGIEIEVPANGIPEGCKHITPDMLTLTTLDQASIERIVAGVPGGAAN</td>\n\t                    \n\t                    <td>val</td>\n\t                    \n\t                    <td>47</td>\n\t                    \n\t                    <td>Pseudomonas syringae BRIP34881 genomic scaffold sc...</td>\n\t                    \n\t                    <td>NZ_KB316531.1.cluster009.gbk</td>\n\t                    \n\t            </tr>\n\t            <tr>\n\t                <td>38335</td>\n\t                \n\t                    <td>pro</td>\n\t                    \n\t                    <td>RKDARGPQAPAIVPVPRTD</td>\n\t                    \n\t                    <td>val</td>\n\t                    \n\t                    <td>19</td>\n\t                    \n\t                    <td>Myxococcus stipitatus DSM 14675, complete genome.</td>\n\t                    \n\t                    <td>NC_020126.1.cluster005.gbk</td>\n\t                    \n\t            </tr>\n\t            <tr>\n\t                <td>38895</td>\n\t                \n\t                    <td>pro</td>\n\t                    \n\t                    <td>KGGTFEALVPAPM</td>\n\t                    \n\t                    <td>val</td>\n\t                    \n\t                    <td>13</td>\n\t                    \n\t                    <td>Paenibacillus alvei DSM 29 PAV_3c, whole genome sh...</td>\n\t                    \n\t                    <td>NZ_AMBZ01000023.1.cluster004.gbk</td>\n\t                    \n\t            </tr>\n\t            <tr>\n\t                <td>20</td>\n\t                \n\t                    <td>orn</td>\n\t                    \n\t                    <td>DGSVPSALKSVKEQLRRVPNHGFGYGALRYLSAAGAELASGSAAPVLFNY...</td>\n\t                    \n\t                    <td>ser</td>\n\t                    \n\t                    <td>160</td>\n\t                    \n\t                    <td>Rhodococcus equi ATCC 33707 chromosome, whole geno...</td>\n\t                    \n\t                    <td>NZ_CM001149.1.cluster004.gbk</td>\n\t                    \n\t            </tr>\n\t            <tr>\n\t                <td>619</td>\n\t                \n\t                    <td>orn</td>\n\t                    \n\t                    <td>CIKDEAELVTLAQTPRLP</td>\n\t                    \n\t                    <td>ser</td>\n\t                    \n\t                    <td>18</td>\n\t                    \n\t                    <td>Vibrio splendidus ZS-139 ZS-139_contig_229, whole ...</td>\n\t                    \n\t                    <td>NZ_AJZE02000001.1.cluster001.gbk</td>\n\t                    \n\t            </tr>\n\t            <tr>\n\t                <td>951</td>\n\t                \n\t                    <td>orn</td>\n\t                    \n\t                    <td>IDAVDEDEIIVAAPR</td>\n\t                    \n\t                    <td>ser</td>\n\t                    \n\t                    <td>15</td>\n\t                    \n\t                    <td>Nitrosococcus halophilus Nc4, complete genome.</td>\n\t                    \n\t                    <td>NC_013960.1.cluster001.gbk</td>\n\t                    \n\t            </tr>\n\t            <tr>\n\t                <td>1011</td>\n\t                \n\t                    <td>orn</td>\n\t                    \n\t                    <td>QCISELSSSSAHGTQDLAVFARAPRL</td>\n\t                    \n\t                    <td>ser</td>\n\t                    \n\t                    <td>26</td>\n\t                    \n\t                    <td>Vibrio cyclitrophicus 1F289 1F-289_contig_14, whol...</td>\n\t                    \n\t                    <td>NZ_AIDD02000002.1.cluster001.gbk</td>\n\t                    \n\t            </tr>\n\t            <tr>\n\t                <td>1185</td>\n\t                \n\t                    <td>orn</td>\n\t                    \n\t                    <td>AADPTLAPPMLAVGR</td>\n\t                    \n\t                    <td>ser</td>\n\t                    \n\t                    <td>15</td>\n\t                    \n\t                    <td>Pseudomonas fluorescens NZ052 contig00070_contig_1...</td>\n\t                    \n\t                    <td>NZ_AJXH01000001.1.cluster003.gbk</td>\n\t                    \n\t            </tr>\n\t            <tr>\n\t                <td>1398</td>\n\t                \n\t                    <td>orn</td>\n\t                    \n\t                    <td>AAATRQRPELVAAQR</td>\n\t                    \n\t                    <td>ser</td>\n\t                    \n\t                    <td>15</td>\n\t                    \n\t                    <td>Mycobacterium sp. 155 genomic scaffold B133DRAFT_s...</td>\n\t                    \n\t                    <td>NZ_KB892705.1.cluster003.gbk</td>\n\t                    \n\t            </tr>\n\t            <tr>\n\t                <td>1552</td>\n\t                \n\t                    <td>orn</td>\n\t                    \n\t                    <td>GTAAPDLDASGELAGVLKSVKEQLRRVPNAGFGYGALRYLGGSDQLRSFA...</td>\n\t                    \n\t                    <td>ser</td>\n\t                    \n\t                    <td>162</td>\n\t                    \n\t                    <td>Rhodococcus sp. 1139 contig896, whole genome shotg...</td>\n\t                    \n\t                    <td>NZ_LWHK01000128.1.cluster005.gbk</td>\n\t                    \n\t            </tr>\n\t            <tr>\n\t                <td>1564</td>\n\t                \n\t                    <td>orn</td>\n\t                    \n\t                    <td>AGADQAPPLQALPRS</td>\n\t                    \n\t                    <td>ser</td>\n\t                    \n\t                    <td>15</td>\n\t                    \n\t                    <td>Pseudomonas sp. CCA 1 BDGS01000001, whole genome s...</td>\n\t                    \n\t                    <td>NZ_BDGS01000001.1.cluster001.gbk</td>\n\t                    \n\t            </tr>\n\t            <tr>\n\t                <td>2006</td>\n\t                \n\t                    <td>orn</td>\n\t                    \n\t                    <td>DTAAPDLEASGELAVVLKSVKEQLRRVPNAGFGYGALRYLGSSDQLRSVA...</td>\n\t                    \n\t                    <td>ser</td>\n\t                    \n\t                    <td>162</td>\n\t                    \n\t                    <td>Rhodococcus erythropolis strain VSD3 NODE_3_length...</td>\n\t                    \n\t                    <td>NZ_MLKO01000010.1.cluster004.gbk</td>\n\t                    \n\t            </tr>\n\t            <tr>\n\t                <td>2322</td>\n\t                \n\t                    <td>orn</td>\n\t                    \n\t                    <td>APGRPARPTVTALADRP</td>\n\t                    \n\t                    <td>ser</td>\n\t                    \n\t                    <td>17</td>\n\t                    \n\t                    <td>Streptacidiphilus jeojiense strain NRRL B-24555 co...</td>\n\t                    \n\t                    <td>NZ_JOEH01000001.1.cluster002.gbk</td>\n\t                    \n\t            </tr>\n\t            <tr>\n\t                <td>2396</td>\n\t                \n\t                    <td>orn</td>\n\t                    \n\t                    <td>SEESAFADIEPVGEK</td>\n\t                    \n\t                    <td>ser</td>\n\t                    \n\t                    <td>15</td>\n\t                    \n\t                    <td>Paenibacillus sp. HGH0039 genomic scaffold aczJo-s...</td>\n\t                    \n\t                    <td>NZ_KE150412.1.cluster005.gbk</td>\n\t                    \n\t            </tr>\n\t            <tr>\n\t                <td>2424</td>\n\t                \n\t                    <td>orn</td>\n\t                    \n\t                    <td>GADTARPPVTAVTDR</td>\n\t                    \n\t                    <td>ser</td>\n\t                    \n\t                    <td>15</td>\n\t                    \n\t                    <td>Streptomyces sp. NRRL F-6676 contig1.1, whole geno...</td>\n\t                    \n\t                    <td>NZ_JOHS01000001.1.cluster002.gbk</td>\n\t                    \n\t            </tr>\n\t            <tr>\n\t                <td>2464</td>\n\t                \n\t                    <td>orn</td>\n\t                    \n\t                    <td>EGDNRRPRLVAGPR</td>\n\t                    \n\t                    <td>ser</td>\n\t                    \n\t                    <td>14</td>\n\t                    \n\t                    <td>Mycobacterium smegmatis strain INHR1, complete gen...</td>\n\t                    \n\t                    <td>NZ_CP009495.1.cluster001.gbk</td>\n\t                    \n\t            </tr>\n\t            <tr>\n\t                <td>2675</td>\n\t                \n\t                    <td>orn</td>\n\t                    \n\t                    <td>GGKQIEPETSSLLTIASTPR</td>\n\t                    \n\t                    <td>ser</td>\n\t                    \n\t                    <td>20</td>\n\t                    \n\t                    <td>Nocardia sp. 348MFTsu5.1 genomic scaffold H290DRAF...</td>\n\t                    \n\t                    <td>NZ_KB911509.1.cluster001.gbk</td>\n\t                    \n\t            </tr>\n\t            <tr>\n\t                <td>2882</td>\n\t                \n\t                    <td>orn</td>\n\t                    \n\t                    <td>KLVPTDSLAGSLKQIKEQLRAIPDKGLGFGALRYLGNAEAQQALSELPRP...</td>\n\t                    \n\t                    <td>ser</td>\n\t                    \n\t                    <td>169</td>\n\t                    \n\t                    <td>Pseudomonas simiae strain MEB105 contig_29, whole ...</td>\n\t                    \n\t                    <td>NZ_JXQT01000001.1.cluster004.gbk</td>\n\t                    \n\t            </tr>\n\t            <tr>\n\t                <td>2907</td>\n\t                \n\t                    <td>orn</td>\n\t                    \n\t                    <td>GGEPARPAVVRAER</td>\n\t                    \n\t                    <td>ser</td>\n\t                    \n\t                    <td>14</td>\n\t                    \n\t                    <td>Amycolatopsis regifaucium strain GY080 contig_28, ...</td>\n\t                    \n\t                    <td>NZ_LOBU01000052.1.cluster003.gbk</td>\n\t                    \n\t            </tr>\n\t            <tr>\n\t                <td>2965</td>\n\t                \n\t                    <td>orn</td>\n\t                    \n\t                    <td>QCASLKEPAVTIKPVPRM</td>\n\t                    \n\t                    <td>ser</td>\n\t                    \n\t                    <td>18</td>\n\t                    \n\t                    <td>Vibrio coralliilyticus strain S2052 contig0001, wh...</td>\n\t                    \n\t                    <td>NZ_JXXR01000001.1.cluster001.gbk</td>\n\t                    \n\t            </tr>\n\t            <tr>\n\t                <td>3561</td>\n\t                \n\t                    <td>orn</td>\n\t                    \n\t                    <td>DTAATDLEASGELAVVLKSVKEQLRRVPNAGFGYGALRYLGSSDQLRSVA...</td>\n\t                    \n\t                    <td>ser</td>\n\t                    \n\t                    <td>162</td>\n\t                    \n\t                    <td>Rhodococcus erythropolis PR4 DNA, complete genome.</td>\n\t                    \n\t                    <td>NC_012490.1.cluster001.gbk</td>\n\t                    \n\t            </tr>\n\t            <tr>\n\t                <td>3617</td>\n\t                \n\t                    <td>orn</td>\n\t                    \n\t                    <td>CNSHESQASVLQILPVSR</td>\n\t                    \n\t                    <td>ser</td>\n\t                    \n\t                    <td>18</td>\n\t                    \n\t                    <td>Pseudomonas sp. WCS374 genome.</td>\n\t                    \n\t                    <td>NZ_CP007638.1.cluster002.gbk</td>\n\t                    \n\t            </tr>\n\t            <tr>\n\t                <td>3735</td>\n\t                \n\t                    <td>orn</td>\n\t                    \n\t                    <td>VPADSLAASLKQIKEQLRAVPDKGLGFGALRYLGNPEAQQALAALPRPRI...</td>\n\t                    \n\t                    <td>ser</td>\n\t                    \n\t                    <td>169</td>\n\t                    \n\t                    <td>Pseudomonas fluorescens strain Ps006 ref.SRR310621...</td>\n\t                    \n\t                    <td>NZ_LRMR01000001.1.cluster001.gbk</td>\n\t                    \n\t            </tr>\n\t            <tr>\n\t                <td>4123</td>\n\t                \n\t                    <td>orn</td>\n\t                    \n\t                    <td>QCMLTDVRNRGEVVSLARASRLP</td>\n\t                    \n\t                    <td>ser</td>\n\t                    \n\t                    <td>23</td>\n\t                    \n\t                    <td>Vibrio splendidus ZF-90 ZF-90_contig_94, whole gen...</td>\n\t                    \n\t                    <td>NZ_AJZF02000001.1.cluster001.gbk</td>\n\t                    \n\t            </tr>\n\t            <tr>\n\t                <td>4954</td>\n\t                \n\t                    <td>orn</td>\n\t                    \n\t                    <td>AAADEAGIADALKAVKDQLRRIPGSGFGYGALRYLGVPKPELADAPTPQV...</td>\n\t                    \n\t                    <td>ser</td>\n\t                    \n\t                    <td>160</td>\n\t                    \n\t                    <td>Rhodococcus imtechensis RKJ300 = JCM 13270 strain ...</td>\n\t                    \n\t                    <td>NZ_AJJH01000178.1.cluster002.gbk</td>\n\t                    \n\t            </tr>\n\t            <tr>\n\t                <td>5030</td>\n\t                \n\t                    <td>orn</td>\n\t                    \n\t                    <td>TASTLASSLKGIKEQLRAIPDKGIGFGALRYLGQPEVRDALRRLPQPRIT...</td>\n\t                    \n\t                    <td>ser</td>\n\t                    \n\t                    <td>168</td>\n\t                    \n\t                    <td>Pseudomonas trivialis strain IHBB745, complete gen...</td>\n\t                    \n\t                    <td>NZ_CP011507.1.cluster001.gbk</td>\n\t                    \n\t            </tr>\n\t            <tr>\n\t                <td>5188</td>\n\t                \n\t                    <td>orn</td>\n\t                    \n\t                    <td>AGADQAPPLQALPRS</td>\n\t                    \n\t                    <td>ser</td>\n\t                    \n\t                    <td>15</td>\n\t                    \n\t                    <td>Pseudomonas sp. HMSC75E02 Scaffold3160, whole geno...</td>\n\t                    \n\t                    <td>NZ_KV838204.1.cluster002.gbk</td>\n\t                    \n\t            </tr>\n\t            <tr>\n\t                <td>5234</td>\n\t                \n\t                    <td>orn</td>\n\t                    \n\t                    <td>SGGVRRPALVAGPR</td>\n\t                    \n\t                    <td>ser</td>\n\t                    \n\t                    <td>14</td>\n\t                    \n\t                    <td>Mycobacterium goodii strain X7B, complete genome.</td>\n\t                    \n\t                    <td>NZ_CP012150.1.cluster001.gbk</td>\n\t                    \n\t            </tr>\n\t            <tr>\n\t                <td>5236</td>\n\t                \n\t                    <td>orn</td>\n\t                    \n\t                    <td>QCISELSSSSAHGTQDLAVFARAPRL</td>\n\t                    \n\t                    <td>ser</td>\n\t                    \n\t                    <td>26</td>\n\t                    \n\t                    <td>Vibrio cyclitrophicus ZF264 ZF-264_contig_57, whol...</td>\n\t                    \n\t                    <td>NZ_AIDQ02000001.1.cluster001.gbk</td>\n\t                    \n\t            </tr>\n\t            <tr>\n\t                <td>5245</td>\n\t                \n\t                    <td>orn</td>\n\t                    \n\t                    <td>GDLQASVASAPPILPVSR</td>\n\t                    \n\t                    <td>ser</td>\n\t                    \n\t                    <td>18</td>\n\t                    \n\t                    <td>Pseudomonas orientalis strain DSM 17489 2_847326_1...</td>\n\t                    \n\t                    <td>NZ_JYLM01000010.1.cluster004.gbk</td>\n\t                    \n\t            </tr>\n\t            <tr>\n\t                <td>5277</td>\n\t                \n\t                    <td>orn</td>\n\t                    \n\t                    <td>GTAAPDLDASGELAGVLKSVKEQLRRVPNAGFGYGALRYLGGSDQLRSFA...</td>\n\t                    \n\t                    <td>ser</td>\n\t                    \n\t                    <td>162</td>\n\t                    \n\t                    <td>Rhodococcus erythropolis strain CAS922i contig2121...</td>\n\t                    \n\t                    <td>NZ_LDPN01000012.1.cluster005.gbk</td>\n\t                    \n\t            </tr>\n\t            <tr>\n\t                <td>5363</td>\n\t                \n\t                    <td>orn</td>\n\t                    \n\t                    <td>GGEPGAAIMAVKEQLRAVPGNGLGYGVLRHLGDAESRAVLSALPEARVTF...</td>\n\t                    \n\t                    <td>ser</td>\n\t                    \n\t                    <td>163</td>\n\t                    \n\t                    <td>Azospirillum sp. B506 DNA, contig: IB506.C1005, wh...</td>\n\t                    \n\t                    <td>NZ_BADK01001142.1.cluster002.gbk</td>\n\t                    \n\t            </tr>\n\t            <tr>\n\t                <td>5770</td>\n\t                \n\t                    <td>orn</td>\n\t                    \n\t                    <td>QSVDAMPAIQPVPRH</td>\n\t                    \n\t                    <td>ser</td>\n\t                    \n\t                    <td>15</td>\n\t                    \n\t                    <td>Alcanivorax sp. DG881 scf_1104615001386 genomic sc...</td>\n\t                    \n\t                    <td>NZ_DS989918.1.cluster001.gbk</td>\n\t                    \n\t            </tr>\n\t            <tr>\n\t                <td>5771</td>\n\t                \n\t                    <td>orn</td>\n\t                    \n\t                    <td>QCISELSSWSAHGTQDLAVFARAPRL</td>\n\t                    \n\t                    <td>ser</td>\n\t                    \n\t                    <td>26</td>\n\t                    \n\t                    <td>Vibrio cyclitrophicus 1F97 1F-97_contig_5_0, whole...</td>\n\t                    \n\t                    <td>NZ_AIDA02000001.1.cluster001.gbk</td>\n\t                    \n\t            </tr>\n\t            <tr>\n\t                <td>6083</td>\n\t                \n\t                    <td>orn</td>\n\t                    \n\t                    <td>AAADETGIADALKAVKDQLRRIPGSGFGYGALRYLGVPKPELAHAPTPQV...</td>\n\t                    \n\t                    <td>ser</td>\n\t                    \n\t                    <td>160</td>\n\t                    \n\t                    <td>Rhodococcus jostii RHA1, complete genome.</td>\n\t                    \n\t                    <td>NC_008268.1.cluster009.gbk</td>\n\t                    \n\t            </tr>\n\t            <tr>\n\t                <td>6219</td>\n\t                \n\t                    <td>orn</td>\n\t                    \n\t                    <td>IAKESVFHSIGPAGEM</td>\n\t                    \n\t                    <td>ser</td>\n\t                    \n\t                    <td>16</td>\n\t                    \n\t                    <td>Paenibacillus polymyxa SQR-21, complete genome.</td>\n\t                    \n\t                    <td>NZ_CP006872.1.cluster007.gbk</td>\n\t                    \n\t            </tr>\n\t            <tr>\n\t                <td>6291</td>\n\t                \n\t                    <td>orn</td>\n\t                    \n\t                    <td>QCTSLKEPAVTIKAVPRM</td>\n\t                    \n\t                    <td>ser</td>\n\t                    \n\t                    <td>18</td>\n\t                    \n\t                    <td>Vibrio europaeus strain PP-638 chromosome 2 map un...</td>\n\t                    \n\t                    <td>NZ_LUAX01000001.1.cluster001.gbk</td>\n\t                    \n\t            </tr>\n\t            <tr>\n\t                <td>6416</td>\n\t                \n\t                    <td>orn</td>\n\t                    \n\t                    <td>ALTPTDSLKGIKEQLRAIPDKGIGFGALRYLGQPQVREALARLPQPRITF...</td>\n\t                    \n\t                    <td>ser</td>\n\t                    \n\t                    <td>167</td>\n\t                    \n\t                    <td>Pseudomonas sp. LAMO17WK12:I2 D883DRAFT_scaffold00...</td>\n\t                    \n\t                    <td>NZ_AZVU01000001.1.cluster002.gbk</td>\n\t                    \n\t            </tr>\n\t            <tr>\n\t                <td>6694</td>\n\t                \n\t                    <td>orn</td>\n\t                    \n\t                    <td>PGAAAALPPITARTR</td>\n\t                    \n\t                    <td>ser</td>\n\t                    \n\t                    <td>15</td>\n\t                    \n\t                    <td>Rhodococcus sp. 852002-51564_SCH6189132-a contig_3...</td>\n\t                    \n\t                    <td>NZ_LZMJ01000001.1.cluster004.gbk</td>\n\t                    \n\t            </tr>\n\t            <tr>\n\t                <td>6711</td>\n\t                \n\t                    <td>orn</td>\n\t                    \n\t                    <td>GTAAPDLEASGELAVVLKSVKEQLRRVPNAGFGYGALRYLGSSDQLRSVA...</td>\n\t                    \n\t                    <td>ser</td>\n\t                    \n\t                    <td>162</td>\n\t                    \n\t                    <td>Rhodococcus rhodochrous ATCC 17895 contig_37, whol...</td>\n\t                    \n\t                    <td>NZ_ASJJ01000001.1.cluster007.gbk</td>\n\t                    \n\t            </tr>\n\t            <tr>\n\t                <td>6772</td>\n\t                \n\t                    <td>orn</td>\n\t                    \n\t                    <td>QCASLKEPAVTIKPVPRM</td>\n\t                    \n\t                    <td>ser</td>\n\t                    \n\t                    <td>18</td>\n\t                    \n\t                    <td>Vibrio coralliilyticus strain S2043 contig0019, wh...</td>\n\t                    \n\t                    <td>NZ_JXXS01000001.1.cluster003.gbk</td>\n\t                    \n\t            </tr>\n\t            <tr>\n\t                <td>6869</td>\n\t                \n\t                    <td>orn</td>\n\t                    \n\t                    <td>GTAAPDLDASGELAGVLKSVKEQLRRVPNAGFGYGALRYLGGSDQLRSFA...</td>\n\t                    \n\t                    <td>ser</td>\n\t                    \n\t                    <td>162</td>\n\t                    \n\t                    <td>Rhodococcus sp. 008, complete genome.</td>\n\t                    \n\t                    <td>NZ_CP012749.1.cluster001.gbk</td>\n\t                    \n\t            </tr>\n\t            <tr>\n\t                <td>7388</td>\n\t                \n\t                    <td>orn</td>\n\t                    \n\t                    <td>GRPPRPAVVPIPR</td>\n\t                    \n\t                    <td>ser</td>\n\t                    \n\t                    <td>13</td>\n\t                    \n\t                    <td>Frankia symbiont of Datisca glomerata, complete ge...</td>\n\t                    \n\t                    <td>NC_015656.1.cluster001.gbk</td>\n\t                    \n\t            </tr>\n\t            <tr>\n\t                <td>7438</td>\n\t                \n\t                    <td>orn</td>\n\t                    \n\t                    <td>QCISELSSWSAHGTQDLAVFARAPRL</td>\n\t                    \n\t                    <td>ser</td>\n\t                    \n\t                    <td>26</td>\n\t                    \n\t                    <td>Vibrio cyclitrophicus 1F175 1F-175_contig_189, who...</td>\n\t                    \n\t                    <td>NZ_AIDB02000001.1.cluster001.gbk</td>\n\t                    \n\t            </tr>\n\t            <tr>\n\t                <td>7573</td>\n\t                \n\t                    <td>orn</td>\n\t                    \n\t                    <td>AADIGSSIKRIKEQLRAAPNKGLGFGVLRYLAGAHVRQAIEALPVPRVTF...</td>\n\t                    \n\t                    <td>ser</td>\n\t                    \n\t                    <td>166</td>\n\t                    \n\t                    <td>Pseudomonas parafulva NBRC 16636 = DSM 17004 H619D...</td>\n\t                    \n\t                    <td>NZ_KE384443.1.cluster002.gbk</td>\n\t                    \n\t            </tr>\n\t            <tr>\n\t                <td>7721</td>\n\t                \n\t                    <td>orn</td>\n\t                    \n\t                    <td>AGADQAPPLQALPRS</td>\n\t                    \n\t                    <td>ser</td>\n\t                    \n\t                    <td>15</td>\n\t                    \n\t                    <td>Pseudomonas sp. AAC genomic scaffold Scaffold7, wh...</td>\n\t                    \n\t                    <td>NZ_KL647094.1.cluster001.gbk</td>\n\t                    \n\t            </tr>\n\t            <tr>\n\t                <td>7767</td>\n\t                \n\t                    <td>orn</td>\n\t                    \n\t                    <td>AAVGETGLADALKAVKDQLRRIPGSGFGYGALRYLGVPQPALAHTPTPQV...</td>\n\t                    \n\t                    <td>ser</td>\n\t                    \n\t                    <td>160</td>\n\t                    \n\t                    <td>Rhodococcus wratislaviensis NBRC 100605, whole gen...</td>\n\t                    \n\t                    <td>NZ_BAWF01000137.1.cluster005.gbk</td>\n\t                    \n\t            </tr>\n\t            <tr>\n\t                <td>7948</td>\n\t                \n\t                    <td>orn</td>\n\t                    \n\t                    <td>LAARTQDRAPALQAVAHEGG</td>\n\t                    \n\t                    <td>ser</td>\n\t                    \n\t                    <td>20</td>\n\t                    \n\t                    <td>Pseudomonas plecoglossicida NBRC 103162 = DSM 1508...</td>\n\t                    \n\t                    <td>NZ_JHYX01000001.1.cluster003.gbk</td>\n\t                    \n\t            </tr>\n\t            <tr>\n\t                <td>8044</td>\n\t                \n\t                    <td>orn</td>\n\t                    \n\t                    <td>ADPARPAVTPVADR</td>\n\t                    \n\t                    <td>ser</td>\n\t                    \n\t                    <td>14</td>\n\t                    \n\t                    <td>Streptomyces sp. Root1310 contig_6, whole genome s...</td>\n\t                    \n\t                    <td>NZ_LMEQ01000001.1.cluster004.gbk</td>\n\t                    \n\t            </tr>\n\t            <tr>\n\t                <td>8717</td>\n\t                \n\t                    <td>orn</td>\n\t                    \n\t                    <td>VPAPSLADSLKGIKEQLRAIPDKGLGFGALRYLGDHAAQQALSQLPRPRI...</td>\n\t                    \n\t                    <td>ser</td>\n\t                    \n\t                    <td>169</td>\n\t                    \n\t                    <td>Pseudomonas rhodesiae genome assembly Pseudomonas ...</td>\n\t                    \n\t                    <td>NZ_CCYI01000001.1.cluster002.gbk</td>\n\t                    \n\t            </tr>\n\t            <tr>\n\t                <td>8732</td>\n\t                \n\t                    <td>orn</td>\n\t                    \n\t                    <td>LDGPTRPELTTAKR</td>\n\t                    \n\t                    <td>ser</td>\n\t                    \n\t                    <td>14</td>\n\t                    \n\t                    <td>Mycobacterium sp. UNCCL9 BR23DRAFT_scaffold00002.2...</td>\n\t                    \n\t                    <td>NZ_JQLT01000001.1.cluster001.gbk</td>\n\t                    \n\t            </tr>\n\t            <tr>\n\t                <td>8791</td>\n\t                \n\t                    <td>orn</td>\n\t                    \n\t                    <td>PADSLAASLKRIKEQLRAVPDKGLGFGALRYLGNAATQQALAALPQPRIT...</td>\n\t                    \n\t                    <td>ser</td>\n\t                    \n\t                    <td>168</td>\n\t                    \n\t                    <td>Pseudomonas fluorescens strain Ps_20 PFLL34_contig...</td>\n\t                    \n\t                    <td>NZ_LCYD01000001.1.cluster001.gbk</td>\n\t                    \n\t            </tr>\n\t            <tr>\n\t                <td>8873</td>\n\t                \n\t                    <td>orn</td>\n\t                    \n\t                    <td>AGADQAPPLQALPRS</td>\n\t                    \n\t                    <td>ser</td>\n\t                    \n\t                    <td>15</td>\n\t                    \n\t                    <td>Pseudomonas sp. ADP Contig20, whole genome shotgun...</td>\n\t                    \n\t                    <td>NZ_CM003636.1.cluster002.gbk</td>\n\t                    \n\t            </tr>\n\t            <tr>\n\t                <td>9517</td>\n\t                \n\t                    <td>orn</td>\n\t                    \n\t                    <td>GTAAPDLDASGELAGVLKSVKEQLRRVPNAGFGYGALRYLGGSDQLRSFA...</td>\n\t                    \n\t                    <td>ser</td>\n\t                    \n\t                    <td>162</td>\n\t                    \n\t                    <td>Rhodococcus qingshengii BKS 20-40 Contig0089, whol...</td>\n\t                    \n\t                    <td>NZ_AODN01000001.1.cluster009.gbk</td>\n\t                    \n\t            </tr>\n\t            <tr>\n\t                <td>9533</td>\n\t                \n\t                    <td>orn</td>\n\t                    \n\t                    <td>EGDNRRPRLVAGPR</td>\n\t                    \n\t                    <td>ser</td>\n\t                    \n\t                    <td>14</td>\n\t                    \n\t                    <td>Mycobacterium smegmatis genome assembly NCTC8159, ...</td>\n\t                    \n\t                    <td>NZ_LN831039.1.cluster001.gbk</td>\n\t                    \n\t            </tr>\n\t            <tr>\n\t                <td>9594</td>\n\t                \n\t                    <td>orn</td>\n\t                    \n\t                    <td>SDPNKSLSYRIKRMKENLRRIPNKGIGYGIHRYLSDSGMSGTENVSRSEA...</td>\n\t                    \n\t                    <td>ser</td>\n\t                    \n\t                    <td>174</td>\n\t                    \n\t                    <td>Paenibacillus alvei A6-6i-x PAAL66ix_18, whole gen...</td>\n\t                    \n\t                    <td>NZ_ATMS01000001.1.cluster002.gbk</td>\n\t                    \n\t            </tr>\n\t            <tr>\n\t                <td>9600</td>\n\t                \n\t                    <td>orn</td>\n\t                    \n\t                    <td>ERDRGLAYHIKRAKEELRQIPNKGIGYGICRYLSEPQDSLEWGAAPEISF...</td>\n\t                    \n\t                    <td>ser</td>\n\t                    \n\t                    <td>166</td>\n\t                    \n\t                    <td>Paenibacillus alvei A6-6i-x PAAL66ix_18, whole gen...</td>\n\t                    \n\t                    <td>NZ_ATMS01000001.1.cluster002.gbk</td>\n\t                    \n\t            </tr>\n\t            <tr>\n\t                <td>9871</td>\n\t                \n\t                    <td>orn</td>\n\t                    \n\t                    <td>AQPAGDAAALAALRAVKRVMRAIPDHGLGYGVLRYLDEEHGPALGALEAK...</td>\n\t                    \n\t                    <td>ser</td>\n\t                    \n\t                    <td>187</td>\n\t                    \n\t                    <td>Chromobacterium violaceum strain GN5 Contig8, whol...</td>\n\t                    \n\t                    <td>NZ_JWPW01000001.1.cluster003.gbk</td>\n\t                    \n\t            </tr>\n\t            <tr>\n\t                <td>9885</td>\n\t                \n\t                    <td>orn</td>\n\t                    \n\t                    <td>QCISELSSSSAHGTQDLAVFARAPRL</td>\n\t                    \n\t                    <td>ser</td>\n\t                    \n\t                    <td>26</td>\n\t                    \n\t                    <td>Vibrio cyclitrophicus strain 5F59 5F59_contig_17, ...</td>\n\t                    \n\t                    <td>NZ_MAKB01000002.1.cluster001.gbk</td>\n\t                    \n\t            </tr>\n\t            <tr>\n\t                <td>9901</td>\n\t                \n\t                    <td>orn</td>\n\t                    \n\t                    <td>GPDLAESIKQVKEQLRSLPDNGLGFGALRYLGSDEARERLAGPLPRVTFN...</td>\n\t                    \n\t                    <td>ser</td>\n\t                    \n\t                    <td>164</td>\n\t                    \n\t                    <td>Pseudomonas putida DNA, contig: 01401, whole genom...</td>\n\t                    \n\t                    <td>NZ_BBQL01000129.1.cluster001.gbk</td>\n\t                    \n\t            </tr>\n\t            <tr>\n\t                <td>10004</td>\n\t                \n\t                    <td>orn</td>\n\t                    \n\t                    <td>KLVPAPTLADSLKAIKEQLRAIPDKGIGFGALRYLGSPRIREALGQLPRP...</td>\n\t                    \n\t                    <td>ser</td>\n\t                    \n\t                    <td>171</td>\n\t                    \n\t                    <td>Pseudomonas chlororaphis subsp. aurantiaca strain ...</td>\n\t                    \n\t                    <td>NZ_CP009290.1.cluster002.gbk</td>\n\t                    \n\t            </tr>\n\t            <tr>\n\t                <td>10209</td>\n\t                \n\t                    <td>orn</td>\n\t                    \n\t                    <td>DTAAPDLEASGELAVVLKSVKEQLRRVPNAGFGYGALRYLGSSDQLRSVA...</td>\n\t                    \n\t                    <td>ser</td>\n\t                    \n\t                    <td>162</td>\n\t                    \n\t                    <td>Rhodococcus erythropolis strain NSX2 scaffold9.1, ...</td>\n\t                    \n\t                    <td>NZ_MDCH01000001.1.cluster013.gbk</td>\n\t                    \n\t            </tr>\n\t            <tr>\n\t                <td>10792</td>\n\t                \n\t                    <td>orn</td>\n\t                    \n\t                    <td>ASPARPAVTPVADR</td>\n\t                    \n\t                    <td>ser</td>\n\t                    \n\t                    <td>14</td>\n\t                    \n\t                    <td>Streptomyces hokutonensis strain R1-NS-10, whole g...</td>\n\t                    \n\t                    <td>NZ_BARG01000167.1.cluster006.gbk</td>\n\t                    \n\t            </tr>\n\t            <tr>\n\t                <td>10905</td>\n\t                \n\t                    <td>orn</td>\n\t                    \n\t                    <td>GTAAPDLDATDDLAGVLKSVKEQLRRVPNAGFGYGALRYLGSSDQLGSVA...</td>\n\t                    \n\t                    <td>ser</td>\n\t                    \n\t                    <td>162</td>\n\t                    \n\t                    <td>Rhodococcus enclensis strain NIO-1009 Scaffold14, ...</td>\n\t                    \n\t                    <td>NZ_KQ758500.1.cluster007.gbk</td>\n\t                    \n\t            </tr>\n\t            <tr>\n\t                <td>11840</td>\n\t                \n\t                    <td>orn</td>\n\t                    \n\t                    <td>GGEPARAAVVRAER</td>\n\t                    \n\t                    <td>ser</td>\n\t                    \n\t                    <td>14</td>\n\t                    \n\t                    <td>Amycolatopsis orientalis HCCB10007, complete genom...</td>\n\t                    \n\t                    <td>NC_021252.1.cluster005.gbk</td>\n\t                    \n\t            </tr>\n\t            <tr>\n\t                <td>12101</td>\n\t                \n\t                    <td>orn</td>\n\t                    \n\t                    <td>EGDNRRPRLVAGPR</td>\n\t                    \n\t                    <td>ser</td>\n\t                    \n\t                    <td>14</td>\n\t                    \n\t                    <td>Mycobacterium smegmatis strain INHR2, complete gen...</td>\n\t                    \n\t                    <td>NZ_CP009496.1.cluster001.gbk</td>\n\t                    \n\t            </tr>\n\t            <tr>\n\t                <td>12188</td>\n\t                \n\t                    <td>orn</td>\n\t                    \n\t                    <td>GDLAQRIKRIKEDLRRVPNKGVGYGLFKYHGTSEQREVLASLPRPEVVFN...</td>\n\t                    \n\t                    <td>ser</td>\n\t                    \n\t                    <td>162</td>\n\t                    \n\t                    <td>Nitrosospira multiformis ATCC 25196, complete geno...</td>\n\t                    \n\t                    <td>NC_007614.1.cluster001.gbk</td>\n\t                    \n\t            </tr>\n\t            <tr>\n\t                <td>12269</td>\n\t                \n\t                    <td>orn</td>\n\t                    \n\t                    <td>EQTLAGSLKGIKEQLRAIPDKGIGFGALRYLGQAPVREAMARLPQPRITF...</td>\n\t                    \n\t                    <td>ser</td>\n\t                    \n\t                    <td>167</td>\n\t                    \n\t                    <td>Pseudomonas fluorescens PA4C2 genomic scaffold sca...</td>\n\t                    \n\t                    <td>NZ_KN360950.1.cluster002.gbk</td>\n\t                    \n\t            </tr>\n\t            <tr>\n\t                <td>12305</td>\n\t                \n\t                    <td>orn</td>\n\t                    \n\t                    <td>QCMLTDVRNRGEVVSLARASRLP</td>\n\t                    \n\t                    <td>ser</td>\n\t                    \n\t                    <td>23</td>\n\t                    \n\t                    <td>Vibrio tasmaniensis ZS-17 ZS-17_contig_94, whole g...</td>\n\t                    \n\t                    <td>NZ_AJZQ02000001.1.cluster001.gbk</td>\n\t                    \n\t            </tr>\n\t            <tr>\n\t                <td>12377</td>\n\t                \n\t                    <td>orn</td>\n\t                    \n\t                    <td>RPATTQRTGLQARPR</td>\n\t                    \n\t                    <td>ser</td>\n\t                    \n\t                    <td>15</td>\n\t                    \n\t                    <td>Mycobacterium chlorophenolicum JCM 7439 = NBRC 155...</td>\n\t                    \n\t                    <td>NZ_BCQY01000001.1.cluster002.gbk</td>\n\t                    \n\t            </tr>\n\t            <tr>\n\t                <td>12841</td>\n\t                \n\t                    <td>orn</td>\n\t                    \n\t                    <td>QCTSLKEPAVTIKAMPRM</td>\n\t                    \n\t                    <td>ser</td>\n\t                    \n\t                    <td>18</td>\n\t                    \n\t                    <td>Vibrio sp. VPAP30 NODE_3, whole genome shotgun seq...</td>\n\t                    \n\t                    <td>NZ_LBLS01000043.1.cluster001.gbk</td>\n\t                    \n\t            </tr>\n\t            <tr>\n\t                <td>12842</td>\n\t                \n\t                    <td>orn</td>\n\t                    \n\t                    <td>QCISELSSSSAHGTQDLAVFARAPRL</td>\n\t                    \n\t                    <td>ser</td>\n\t                    \n\t                    <td>26</td>\n\t                    \n\t                    <td>Vibrio cyclitrophicus ZF270 ZF-270_contig_22, whol...</td>\n\t                    \n\t                    <td>NZ_AIDR02000001.1.cluster001.gbk</td>\n\t                    \n\t            </tr>\n\t            <tr>\n\t                <td>12873</td>\n\t                \n\t                    <td>orn</td>\n\t                    \n\t                    <td>DPQASLASAPPILPVSR</td>\n\t                    \n\t                    <td>ser</td>\n\t                    \n\t                    <td>17</td>\n\t                    \n\t                    <td>Pseudomonas trivialis strain DSM 14937 13_189724_3...</td>\n\t                    \n\t                    <td>NZ_JYLK01000010.1.cluster001.gbk</td>\n\t                    \n\t            </tr>\n\t            <tr>\n\t                <td>13160</td>\n\t                \n\t                    <td>orn</td>\n\t                    \n\t                    <td>QCFSELSSSSAHGTQDLAVFARAPRL</td>\n\t                    \n\t                    <td>ser</td>\n\t                    \n\t                    <td>26</td>\n\t                    \n\t                    <td>Vibrio cyclitrophicus ZF205 ZF-205_contig_4, whole...</td>\n\t                    \n\t                    <td>NZ_AIDO02000001.1.cluster001.gbk</td>\n\t                    \n\t            </tr>\n\t            <tr>\n\t                <td>13989</td>\n\t                \n\t                    <td>orn</td>\n\t                    \n\t                    <td>GTAAPDLEASGELAVVLKSVKEQLRRVPNAGFGYGALRYLGSSDQLRSVA...</td>\n\t                    \n\t                    <td>ser</td>\n\t                    \n\t                    <td>162</td>\n\t                    \n\t                    <td>Rhodococcus erythropolis strain BG43, complete gen...</td>\n\t                    \n\t                    <td>NZ_CP011295.1.cluster001.gbk</td>\n\t                    \n\t            </tr>\n\t            <tr>\n\t                <td>13998</td>\n\t                \n\t                    <td>orn</td>\n\t                    \n\t                    <td>QCISELSSSSAHGTQDLAVFARAPRL</td>\n\t                    \n\t                    <td>ser</td>\n\t                    \n\t                    <td>26</td>\n\t                    \n\t                    <td>Vibrio cyclitrophicus ZF30 ZF-30_contig_23, whole ...</td>\n\t                    \n\t                    <td>NZ_AIDJ02000001.1.cluster001.gbk</td>\n\t                    \n\t            </tr>\n\t            <tr>\n\t                <td>14303</td>\n\t                \n\t                    <td>orn</td>\n\t                    \n\t                    <td>GSLGQGGHTARLIKRIKEGLRHIPQKGIGYGILRYLSDMNMLEKAGVRLQ...</td>\n\t                    \n\t                    <td>ser</td>\n\t                    \n\t                    <td>173</td>\n\t                    \n\t                    <td>Paenibacillus polymyxa strain Sb3-1, complete geno...</td>\n\t                    \n\t                    <td>NZ_CP010268.1.cluster001.gbk</td>\n\t                    \n\t            </tr>\n\t            <tr>\n\t                <td>14337</td>\n\t                \n\t                    <td>orn</td>\n\t                    \n\t                    <td>QCISELSSSSAHGTQDLAVFARAPRL</td>\n\t                    \n\t                    <td>ser</td>\n\t                    \n\t                    <td>26</td>\n\t                    \n\t                    <td>Vibrio cyclitrophicus ZF28 ZF-28_contig_1, whole g...</td>\n\t                    \n\t                    <td>NZ_AIDI02000001.1.cluster001.gbk</td>\n\t                    \n\t            </tr>\n\t            <tr>\n\t                <td>14362</td>\n\t                \n\t                    <td>orn</td>\n\t                    \n\t                    <td>DPGADAGVAIRGIKEQLRQVPDHGMGYGILRYLGEPQVRAELAAGSQPSI...</td>\n\t                    \n\t                    <td>ser</td>\n\t                    \n\t                    <td>166</td>\n\t                    \n\t                    <td>Pseudomonas sp. Leaf129 contig_1, whole genome sho...</td>\n\t                    \n\t                    <td>NZ_LMOC01000001.1.cluster001.gbk</td>\n\t                    \n\t            </tr>\n\t            <tr>\n\t                <td>14376</td>\n\t                \n\t                    <td>orn</td>\n\t                    \n\t                    <td>LDAPTRPELTAAAR</td>\n\t                    \n\t                    <td>ser</td>\n\t                    \n\t                    <td>14</td>\n\t                    \n\t                    <td>Mycobacterium neoaurum strain MN4 contig01, whole ...</td>\n\t                    \n\t                    <td>NZ_JXYZ01000001.1.cluster001.gbk</td>\n\t                    \n\t            </tr>\n\t            <tr>\n\t                <td>14609</td>\n\t                \n\t                    <td>orn</td>\n\t                    \n\t                    <td>PTGDLSDADVLLQVRDHLRAGPDSGLGYGALRYLTRDLAAANPPRVLINY...</td>\n\t                    \n\t                    <td>ser</td>\n\t                    \n\t                    <td>142</td>\n\t                    \n\t                    <td>Rhodococcus sp. Leaf247 contig_1, whole genome sho...</td>\n\t                    \n\t                    <td>NZ_LMRP01000001.1.cluster004.gbk</td>\n\t                    \n\t            </tr>\n\t            <tr>\n\t                <td>14758</td>\n\t                \n\t                    <td>orn</td>\n\t                    \n\t                    <td>EGDNRRPRLVAGPR</td>\n\t                    \n\t                    <td>ser</td>\n\t                    \n\t                    <td>14</td>\n\t                    \n\t                    <td>Mycobacterium smegmatis str. MC2 155 chromosome, c...</td>\n\t                    \n\t                    <td>NC_008596.1.cluster001.gbk</td>\n\t                    \n\t            </tr>\n\t            <tr>\n\t                <td>14787</td>\n\t                \n\t                    <td>orn</td>\n\t                    \n\t                    <td>PGAAAALPPITARTR</td>\n\t                    \n\t                    <td>ser</td>\n\t                    \n\t                    <td>15</td>\n\t                    \n\t                    <td>Rhodococcus sp. Chr-9 NODE_78, whole genome shotgu...</td>\n\t                    \n\t                    <td>NZ_JTIZ01000001.1.cluster008.gbk</td>\n\t                    \n\t            </tr>\n\t            <tr>\n\t                <td>14841</td>\n\t                \n\t                    <td>orn</td>\n\t                    \n\t                    <td>ASTLADSLKGIKEQLRAIPDKGIGFGALRYLGQPDVRDALARLPQPRITF...</td>\n\t                    \n\t                    <td>ser</td>\n\t                    \n\t                    <td>168</td>\n\t                    \n\t                    <td>Pseudomonas fluorescens LMG 5329 Contig_109, whole...</td>\n\t                    \n\t                    <td>NZ_ASGY01000001.1.cluster002.gbk</td>\n\t                    \n\t            </tr>\n\t            <tr>\n\t                <td>15027</td>\n\t                \n\t                    <td>orn</td>\n\t                    \n\t                    <td>SEESAFADIEPVGEK</td>\n\t                    \n\t                    <td>ser</td>\n\t                    \n\t                    <td>15</td>\n\t                    \n\t                    <td>Paenibacillus sp. HGF7 contig00018, whole genome s...</td>\n\t                    \n\t                    <td>NZ_AFDH01000148.1.cluster009.gbk</td>\n\t                    \n\t            </tr>\n\t            <tr>\n\t                <td>15227</td>\n\t                \n\t                    <td>orn</td>\n\t                    \n\t                    <td>KLADATDISATIKAVKQSLRDVPDAGLGFGVLQYLAGDGERAALSALPQA...</td>\n\t                    \n\t                    <td>ser</td>\n\t                    \n\t                    <td>164</td>\n\t                    \n\t                    <td>Methylosarcina fibrata AML-C10 genomic scaffold A3...</td>\n\t                    \n\t                    <td>NZ_KB889965.1.cluster001.gbk</td>\n\t                    \n\t            </tr>\n\t            <tr>\n\t                <td>15241</td>\n\t                \n\t                    <td>orn</td>\n\t                    \n\t                    <td>GPDLAESIKQVKEQLRSLPDNGLGFGALRYLGSDEARERLAGPLPRVTFN...</td>\n\t                    \n\t                    <td>ser</td>\n\t                    \n\t                    <td>164</td>\n\t                    \n\t                    <td>Stenotrophomonas rhizophila strain Simmons01 conti...</td>\n\t                    \n\t                    <td>NZ_LNNI01000001.1.cluster001.gbk</td>\n\t                    \n\t            </tr>\n\t            <tr>\n\t                <td>15830</td>\n\t                \n\t                    <td>orn</td>\n\t                    \n\t                    <td>AESARPAIAPRPR</td>\n\t                    \n\t                    <td>ser</td>\n\t                    \n\t                    <td>13</td>\n\t                    \n\t                    <td>Rhodococcus rhodnii LMG 5362 LMG_5362_contig103, w...</td>\n\t                    \n\t                    <td>NZ_APMY01000001.1.cluster003.gbk</td>\n\t                    \n\t            </tr>\n\t            <tr>\n\t                <td>15950</td>\n\t                \n\t                    <td>orn</td>\n\t                    \n\t                    <td>QCISELSSSSAHGTQDLAVFARAPRL</td>\n\t                    \n\t                    <td>ser</td>\n\t                    \n\t                    <td>26</td>\n\t                    \n\t                    <td>Vibrio cyclitrophicus ZF207 ZF-207_contig_14, whol...</td>\n\t                    \n\t                    <td>NZ_AIDN02000001.1.cluster001.gbk</td>\n\t                    \n\t            </tr>\n\t            <tr>\n\t                <td>16022</td>\n\t                \n\t                    <td>orn</td>\n\t                    \n\t                    <td>PGAAAALPPVTARTR</td>\n\t                    \n\t                    <td>ser</td>\n\t                    \n\t                    <td>15</td>\n\t                    \n\t                    <td>Rhodococcus rhodochrous BKS6-46 Contig75, whole ge...</td>\n\t                    \n\t                    <td>NZ_AGVW02000516.1.cluster012.gbk</td>\n\t                    \n\t            </tr>\n\t            <tr>\n\t                <td>16086</td>\n\t                \n\t                    <td>orn</td>\n\t                    \n\t                    <td>AQPAGDAAALAALRAVKRVMRAIPDHGLGYGVLRYLDEEHGPALGALEAQ...</td>\n\t                    \n\t                    <td>ser</td>\n\t                    \n\t                    <td>187</td>\n\t                    \n\t                    <td>Chromobacterium violaceum strain L_1B5_1 contig_30...</td>\n\t                    \n\t                    <td>NZ_JYGI01000001.1.cluster001.gbk</td>\n\t                    \n\t            </tr>\n\t            <tr>\n\t                <td>16178</td>\n\t                \n\t                    <td>orn</td>\n\t                    \n\t                    <td>KLVPTDSLAGSLKQIKEQLRAIPDKGLGFGALRYLGNAEAQQALSELPRP...</td>\n\t                    \n\t                    <td>ser</td>\n\t                    \n\t                    <td>169</td>\n\t                    \n\t                    <td>Pseudomonas fluorescens SBW25 complete genome.</td>\n\t                    \n\t                    <td>NC_012660.1.cluster001.gbk</td>\n\t                    \n\t            </tr>\n\t            <tr>\n\t                <td>16218</td>\n\t                \n\t                    <td>orn</td>\n\t                    \n\t                    <td>QCISELSSWSAHGTQDLAVFARAPRL</td>\n\t                    \n\t                    <td>ser</td>\n\t                    \n\t                    <td>26</td>\n\t                    \n\t                    <td>Vibrio cyclitrophicus 1F111 1F-111_contig_94, whol...</td>\n\t                    \n\t                    <td>NZ_AHTI02000001.1.cluster001.gbk</td>\n\t                    \n\t            </tr>\n\t            <tr>\n\t                <td>16305</td>\n\t                \n\t                    <td>orn</td>\n\t                    \n\t                    <td>GAAADETGIADALKAVKDQLRRIPGSGFGYGALRYLGVPKPELAHAPTPQ...</td>\n\t                    \n\t                    <td>ser</td>\n\t                    \n\t                    <td>161</td>\n\t                    \n\t                    <td>Rhodococcus sp. JVH1 grj.contig.87, whole genome s...</td>\n\t                    \n\t                    <td>NZ_AKKP01000001.1.cluster009.gbk</td>\n\t                    \n\t            </tr>\n\t            <tr>\n\t                <td>16394</td>\n\t                \n\t                    <td>orn</td>\n\t                    \n\t                    <td>PVQQPAPALRSLPRSG</td>\n\t                    \n\t                    <td>ser</td>\n\t                    \n\t                    <td>16</td>\n\t                    \n\t                    <td>Azotobacter chroococcum NCIMB 8003 plasmid pAcX50f...</td>\n\t                    \n\t                    <td>NZ_CP010415.1.cluster003.gbk</td>\n\t                    \n\t            </tr>\n\t            <tr>\n\t                <td>16610</td>\n\t                \n\t                    <td>orn</td>\n\t                    \n\t                    <td>TDQRSAPPMLAVGR</td>\n\t                    \n\t                    <td>ser</td>\n\t                    \n\t                    <td>14</td>\n\t                    \n\t                    <td>Pseudomonas sp. CHM02 contig00013, whole genome sh...</td>\n\t                    \n\t                    <td>NZ_JFCA01000001.1.cluster002.gbk</td>\n\t                    \n\t            </tr>\n\t            <tr>\n\t                <td>16721</td>\n\t                \n\t                    <td>orn</td>\n\t                    \n\t                    <td>AAADIGATIKVVKQSLREVPDAGLGFGVLQYLAGDGKRAALNALPQARIG...</td>\n\t                    \n\t                    <td>ser</td>\n\t                    \n\t                    <td>161</td>\n\t                    \n\t                    <td>Methylomicrobium agile strain ATCC 35068 CC94DRAFT...</td>\n\t                    \n\t                    <td>NZ_JPOJ01000001.1.cluster002.gbk</td>\n\t                    \n\t            </tr>\n\t            <tr>\n\t                <td>16763</td>\n\t                \n\t                    <td>orn</td>\n\t                    \n\t                    <td>GGEPARPAIKPAER</td>\n\t                    \n\t                    <td>ser</td>\n\t                    \n\t                    <td>14</td>\n\t                    \n\t                    <td>Amycolatopsis nigrescens CSC17Ta-90 AmyniDRAFT_Con...</td>\n\t                    \n\t                    <td>NZ_ARVW01000001.1.cluster002.gbk</td>\n\t                    \n\t            </tr>\n\t            <tr>\n\t                <td>16906</td>\n\t                \n\t                    <td>orn</td>\n\t                    \n\t                    <td>CQPANAMPDIQPVPRH</td>\n\t                    \n\t                    <td>ser</td>\n\t                    \n\t                    <td>16</td>\n\t                    \n\t                    <td>Alcanivorax borkumensis SK2, complete genome.</td>\n\t                    \n\t                    <td>NC_008260.1.cluster002.gbk</td>\n\t                    \n\t            </tr>\n\t            <tr>\n\t                <td>17713</td>\n\t                \n\t                    <td>orn</td>\n\t                    \n\t                    <td>GTAAPDLDATDDLAGVLKSVKEQLRRVPNAGFGYGALRYLGSSDQLGSVA...</td>\n\t                    \n\t                    <td>ser</td>\n\t                    \n\t                    <td>162</td>\n\t                    \n\t                    <td>Rhodococcus erythropolis SK121 contig00024, whole ...</td>\n\t                    \n\t                    <td>NZ_ACNO01000124.1.cluster001.gbk</td>\n\t                    \n\t            </tr>\n\t            <tr>\n\t                <td>17799</td>\n\t                \n\t                    <td>orn</td>\n\t                    \n\t                    <td>SAASAQPSIVVGNRP</td>\n\t                    \n\t                    <td>ser</td>\n\t                    \n\t                    <td>15</td>\n\t                    \n\t                    <td>Rhodococcus sp. AD45 Contig001, whole genome shotg...</td>\n\t                    \n\t                    <td>NZ_CM003191.1.cluster002.gbk</td>\n\t                    \n\t            </tr>\n\t            <tr>\n\t                <td>17956</td>\n\t                \n\t                    <td>orn</td>\n\t                    \n\t                    <td>LTPAEQPAAQLELVARHQ</td>\n\t                    \n\t                    <td>ser</td>\n\t                    \n\t                    <td>18</td>\n\t                    \n\t                    <td>Pseudomonas lutea strain DSM 17257 Contig001, whol...</td>\n\t                    \n\t                    <td>NZ_JRMB01000001.1.cluster001.gbk</td>\n\t                    \n\t            </tr>\n\t            <tr>\n\t                <td>18372</td>\n\t                \n\t                    <td>orn</td>\n\t                    \n\t                    <td>LDGPTRPELTTAKR</td>\n\t                    \n\t                    <td>ser</td>\n\t                    \n\t                    <td>14</td>\n\t                    \n\t                    <td>Mycobacterium neoaurum ATCC 25795 contig_3, whole ...</td>\n\t                    \n\t                    <td>NZ_JMDW01000001.1.cluster001.gbk</td>\n\t                    \n\t            </tr>\n\t            <tr>\n\t                <td>18377</td>\n\t                \n\t                    <td>orn</td>\n\t                    \n\t                    <td>HAAEEDLAPPMRAIGR</td>\n\t                    \n\t                    <td>ser</td>\n\t                    \n\t                    <td>16</td>\n\t                    \n\t                    <td>Pseudomonas fluorescens ICMP 11288 scaffold17, who...</td>\n\t                    \n\t                    <td>NZ_LKEF01000001.1.cluster001.gbk</td>\n\t                    \n\t            </tr>\n\t            <tr>\n\t                <td>18418</td>\n\t                \n\t                    <td>orn</td>\n\t                    \n\t                    <td>QCISELSSWSAHGTQDLAVFARAPRL</td>\n\t                    \n\t                    <td>ser</td>\n\t                    \n\t                    <td>26</td>\n\t                    \n\t                    <td>Vibrio cyclitrophicus FF160 FF-160_contig_83, whol...</td>\n\t                    \n\t                    <td>NZ_AIDF02000001.1.cluster001.gbk</td>\n\t                    \n\t            </tr>\n\t            <tr>\n\t                <td>18661</td>\n\t                \n\t                    <td>orn</td>\n\t                    \n\t                    <td>CNSHESQASVLQILPVSR</td>\n\t                    \n\t                    <td>ser</td>\n\t                    \n\t                    <td>18</td>\n\t                    \n\t                    <td>Pseudomonas fluorescens strain Ps_77 PFLuk1_contig...</td>\n\t                    \n\t                    <td>NZ_LCYB01000001.1.cluster004.gbk</td>\n\t                    \n\t            </tr>\n\t            <tr>\n\t                <td>18846</td>\n\t                \n\t                    <td>orn</td>\n\t                    \n\t                    <td>GPDPDADVLLQIRDSLRSAPASGVGYGALRYLRREPALAEAAAPSVLFNY...</td>\n\t                    \n\t                    <td>ser</td>\n\t                    \n\t                    <td>142</td>\n\t                    \n\t                    <td>Rhodococcus sp. Leaf258 contig_2, whole genome sho...</td>\n\t                    \n\t                    <td>NZ_LMRQ01000001.1.cluster003.gbk</td>\n\t                    \n\t            </tr>\n\t            <tr>\n\t                <td>18869</td>\n\t                \n\t                    <td>orn</td>\n\t                    \n\t                    <td>PGAAAALPPITARTR</td>\n\t                    \n\t                    <td>ser</td>\n\t                    \n\t                    <td>15</td>\n\t                    \n\t                    <td>Rhodococcus pyridinivorans AK37 contig54, whole ge...</td>\n\t                    \n\t                    <td>NZ_AHBW01000095.1.cluster005.gbk</td>\n\t                    \n\t            </tr>\n\t            <tr>\n\t                <td>19466</td>\n\t                \n\t                    <td>orn</td>\n\t                    \n\t                    <td>EPDKGLSYQIKKTKENLRRIPNKGIGYGIYRYLSGQRMADHASMSKPEIS...</td>\n\t                    \n\t                    <td>ser</td>\n\t                    \n\t                    <td>167</td>\n\t                    \n\t                    <td>Paenibacillus taiwanensis DSM 18679 genomic scaffo...</td>\n\t                    \n\t                    <td>NZ_KE384306.1.cluster004.gbk</td>\n\t                    \n\t            </tr>\n\t            <tr>\n\t                <td>19779</td>\n\t                \n\t                    <td>orn</td>\n\t                    \n\t                    <td>GNGTLDGAIKAVKEQLRAVPGEGIGFGLLRRFGSPAQQAALAEVPKPEVV...</td>\n\t                    \n\t                    <td>ser</td>\n\t                    \n\t                    <td>164</td>\n\t                    \n\t                    <td>Cupriavidus taiwanensis str. LMG19424 chromosome 2...</td>\n\t                    \n\t                    <td>NC_010528.1.cluster001.gbk</td>\n\t                    \n\t            </tr>\n\t            <tr>\n\t                <td>19821</td>\n\t                \n\t                    <td>orn</td>\n\t                    \n\t                    <td>SPARPAVAPVTDR</td>\n\t                    \n\t                    <td>ser</td>\n\t                    \n\t                    <td>13</td>\n\t                    \n\t                    <td>Streptomyces sp. 303MFCol5.2 H294DRAFT_scaffold000...</td>\n\t                    \n\t                    <td>NZ_KB911698.1.cluster001.gbk</td>\n\t                    \n\t            </tr>\n\t            <tr>\n\t                <td>20196</td>\n\t                \n\t                    <td>orn</td>\n\t                    \n\t                    <td>SGVPARPAVVPRER</td>\n\t                    \n\t                    <td>ser</td>\n\t                    \n\t                    <td>14</td>\n\t                    \n\t                    <td>Amycolatopsis jejuensis strain NRRL B-24427 contig...</td>\n\t                    \n\t                    <td>NZ_JNYZ01000001.1.cluster001.gbk</td>\n\t                    \n\t            </tr>\n\t            <tr>\n\t                <td>20279</td>\n\t                \n\t                    <td>orn</td>\n\t                    \n\t                    <td>AADAPVLRALPRGV</td>\n\t                    \n\t                    <td>ser</td>\n\t                    \n\t                    <td>14</td>\n\t                    \n\t                    <td>Pseudomonas sp. ML96 ML96_Contig_3, whole genome s...</td>\n\t                    \n\t                    <td>NZ_JPMY01000001.1.cluster001.gbk</td>\n\t                    \n\t            </tr>\n\t            <tr>\n\t                <td>20288</td>\n\t                \n\t                    <td>orn</td>\n\t                    \n\t                    <td>PADSLAASLKRIKEQLRAVPDKGLGFGALRYLGNAATQQALAALPQPRIT...</td>\n\t                    \n\t                    <td>ser</td>\n\t                    \n\t                    <td>168</td>\n\t                    \n\t                    <td>Pseudomonas sp. DSM 28142 14_202997_22.0649, whole...</td>\n\t                    \n\t                    <td>NZ_JYLP01000010.1.cluster002.gbk</td>\n\t                    \n\t            </tr>\n\t            <tr>\n\t                <td>20303</td>\n\t                \n\t                    <td>orn</td>\n\t                    \n\t                    <td>GDLSDADVLLQVRDHLRAGPDSGLGYGALRYLTQDLAAANPPRVLINYLG...</td>\n\t                    \n\t                    <td>ser</td>\n\t                    \n\t                    <td>140</td>\n\t                    \n\t                    <td>Rhodococcus sp. MEB064 contig_18, whole genome sho...</td>\n\t                    \n\t                    <td>NZ_JXQS01000001.1.cluster002.gbk</td>\n\t                    \n\t            </tr>\n\t            <tr>\n\t                <td>20420</td>\n\t                \n\t                    <td>orn</td>\n\t                    \n\t                    <td>LDAPTRPELTAAAR</td>\n\t                    \n\t                    <td>ser</td>\n\t                    \n\t                    <td>14</td>\n\t                    \n\t                    <td>Mycobacterium neoaurum VKM Ac-1815D, complete geno...</td>\n\t                    \n\t                    <td>NC_023036.2.cluster004.gbk</td>\n\t                    \n\t            </tr>\n\t            <tr>\n\t                <td>20460</td>\n\t                \n\t                    <td>orn</td>\n\t                    \n\t                    <td>GGEPARPAVVRAER</td>\n\t                    \n\t                    <td>ser</td>\n\t                    \n\t                    <td>14</td>\n\t                    \n\t                    <td>Amycolatopsis orientalis strain B-37, complete gen...</td>\n\t                    \n\t                    <td>NZ_CP016174.1.cluster007.gbk</td>\n\t                    \n\t            </tr>\n\t            <tr>\n\t                <td>20507</td>\n\t                \n\t                    <td>orn</td>\n\t                    \n\t                    <td>DPQASLTSAPPILPVSR</td>\n\t                    \n\t                    <td>ser</td>\n\t                    \n\t                    <td>17</td>\n\t                    \n\t                    <td>Pseudomonas poae strain DSM 14936 1_456710_33.5408...</td>\n\t                    \n\t                    <td>NZ_JYLI01000010.1.cluster004.gbk</td>\n\t                    \n\t            </tr>\n\t            <tr>\n\t                <td>21130</td>\n\t                \n\t                    <td>orn</td>\n\t                    \n\t                    <td>AQTLEDSLKGIKEQLRAIPDKGLGFGALRFLGPAPVREVLARLPQPRITF...</td>\n\t                    \n\t                    <td>ser</td>\n\t                    \n\t                    <td>167</td>\n\t                    \n\t                    <td>Pseudomonas sp. DSM 29164 5_514952_14.4097, whole ...</td>\n\t                    \n\t                    <td>NZ_JYLN01000010.1.cluster003.gbk</td>\n\t                    \n\t            </tr>\n\t            <tr>\n\t                <td>21319</td>\n\t                \n\t                    <td>orn</td>\n\t                    \n\t                    <td>TGRPARPALRTVAER</td>\n\t                    \n\t                    <td>ser</td>\n\t                    \n\t                    <td>15</td>\n\t                    \n\t                    <td>Streptomyces sp. FxanaA7 F611DRAFT_scaffold00001.1...</td>\n\t                    \n\t                    <td>NZ_KQ030475.1.cluster002.gbk</td>\n\t                    \n\t            </tr>\n\t            <tr>\n\t                <td>21504</td>\n\t                \n\t                    <td>orn</td>\n\t                    \n\t                    <td>SDPDKSLSYRIKQMKENLRRIPNKGIGYGIYRYLADSSNGSEVRSKTALR...</td>\n\t                    \n\t                    <td>ser</td>\n\t                    \n\t                    <td>171</td>\n\t                    \n\t                    <td>Paenibacillus alvei DSM 29 PAV_8c, whole genome sh...</td>\n\t                    \n\t                    <td>NZ_AMBZ01000023.1.cluster010.gbk</td>\n\t                    \n\t            </tr>\n\t            <tr>\n\t                <td>21509</td>\n\t                \n\t                    <td>orn</td>\n\t                    \n\t                    <td>WEPNRSLAYHIKELKENLRRIPNKGIGYGICRYLTATEEGLDWGAAPDIS...</td>\n\t                    \n\t                    <td>ser</td>\n\t                    \n\t                    <td>167</td>\n\t                    \n\t                    <td>Paenibacillus alvei DSM 29 PAV_8c, whole genome sh...</td>\n\t                    \n\t                    <td>NZ_AMBZ01000023.1.cluster010.gbk</td>\n\t                    \n\t            </tr>\n\t            <tr>\n\t                <td>21572</td>\n\t                \n\t                    <td>orn</td>\n\t                    \n\t                    <td>PAAASALPPIVAGPR</td>\n\t                    \n\t                    <td>ser</td>\n\t                    \n\t                    <td>15</td>\n\t                    \n\t                    <td>Rhodococcus triatomae BKS 15-14 Contig0018, whole ...</td>\n\t                    \n\t                    <td>NZ_AODO01000001.1.cluster004.gbk</td>\n\t                    \n\t            </tr>\n\t            <tr>\n\t                <td>21654</td>\n\t                \n\t                    <td>orn</td>\n\t                    \n\t                    <td>GPDPDADVLLQIRDSLRSAPASGVGYGALRYLRREPALAEAAAPSVLFNY...</td>\n\t                    \n\t                    <td>ser</td>\n\t                    \n\t                    <td>142</td>\n\t                    \n\t                    <td>Rhodococcus sp. Leaf225 contig_8, whole genome sho...</td>\n\t                    \n\t                    <td>NZ_LMRN01000001.1.cluster006.gbk</td>\n\t                    \n\t            </tr>\n\t            <tr>\n\t                <td>22341</td>\n\t                \n\t                    <td>orn</td>\n\t                    \n\t                    <td>FKCVVKHSSKDMIVAVDR</td>\n\t                    \n\t                    <td>ser</td>\n\t                    \n\t                    <td>18</td>\n\t                    \n\t                    <td>Moritella viscosa genome assembly MVIS1, chromosom...</td>\n\t                    \n\t                    <td>NZ_LN554852.1.cluster001.gbk</td>\n\t                    \n\t            </tr>\n\t            <tr>\n\t                <td>22393</td>\n\t                \n\t                    <td>orn</td>\n\t                    \n\t                    <td>ADMGSSIKRIKEQLRAAPDKGLGFGVLRYLADAEVRQAIEALPVPRVTFN...</td>\n\t                    \n\t                    <td>ser</td>\n\t                    \n\t                    <td>165</td>\n\t                    \n\t                    <td>Pseudomonas taiwanensis DSM 21245 genomic scaffold...</td>\n\t                    \n\t                    <td>NZ_KE384450.1.cluster001.gbk</td>\n\t                    \n\t            </tr>\n\t            <tr>\n\t                <td>22665</td>\n\t                \n\t                    <td>orn</td>\n\t                    \n\t                    <td>PDKSLSSRIKKMKEDLRQIPNKGIGYGIGRYMSELHDEAVWGGAEPDISF...</td>\n\t                    \n\t                    <td>ser</td>\n\t                    \n\t                    <td>166</td>\n\t                    \n\t                    <td>Paenibacillus sp. OSY-SE Contig125, whole genome s...</td>\n\t                    \n\t                    <td>NZ_ALKF01000001.1.cluster003.gbk</td>\n\t                    \n\t            </tr>\n\t            <tr>\n\t                <td>22730</td>\n\t                \n\t                    <td>orn</td>\n\t                    \n\t                    <td>AQPAGDAAALTALRAVKRVMRAIPDHGLGYGVLRYLDEEHGPALGALEAQ...</td>\n\t                    \n\t                    <td>ser</td>\n\t                    \n\t                    <td>187</td>\n\t                    \n\t                    <td>Chromobacterium violaceum strain LK15, whole genom...</td>\n\t                    \n\t                    <td>NZ_LDUT01000001.1.cluster002.gbk</td>\n\t                    \n\t            </tr>\n\t            <tr>\n\t                <td>22735</td>\n\t                \n\t                    <td>orn</td>\n\t                    \n\t                    <td>ADSLAASLKRIKEQLRAVPDKGLGFGALRYLGNAATQQALAALPQPRITF...</td>\n\t                    \n\t                    <td>ser</td>\n\t                    \n\t                    <td>167</td>\n\t                    \n\t                    <td>Pseudomonas sp. DSM 29167 6_401228_19.3946, whole ...</td>\n\t                    \n\t                    <td>NZ_JYLO01000010.1.cluster004.gbk</td>\n\t                    \n\t            </tr>\n\t            <tr>\n\t                <td>22750</td>\n\t                \n\t                    <td>orn</td>\n\t                    \n\t                    <td>QCTSLKEPAVTIKAVPRM</td>\n\t                    \n\t                    <td>ser</td>\n\t                    \n\t                    <td>18</td>\n\t                    \n\t                    <td>Vibrio tubiashii NCIMB 1337 = ATCC 19106 strain NC...</td>\n\t                    \n\t                    <td>NZ_AHHF01000001.1.cluster001.gbk</td>\n\t                    \n\t            </tr>\n\t            <tr>\n\t                <td>22780</td>\n\t                \n\t                    <td>orn</td>\n\t                    \n\t                    <td>ASTLADSLKGIKEQLRAIPDKGIGFGALRYLGQPDVRDALARLPQPRITF...</td>\n\t                    \n\t                    <td>ser</td>\n\t                    \n\t                    <td>168</td>\n\t                    \n\t                    <td>Pseudomonas sp. FH1 scf_29098_16.1_contig_1, whole...</td>\n\t                    \n\t                    <td>NZ_AOHM01000001.1.cluster001.gbk</td>\n\t                    \n\t            </tr>\n\t            <tr>\n\t                <td>23131</td>\n\t                \n\t                    <td>orn</td>\n\t                    \n\t                    <td>DGSVPSALKSVKEQLRRVPNHGFGYGALRYLSAAGAELASGSAAPVLFNY...</td>\n\t                    \n\t                    <td>ser</td>\n\t                    \n\t                    <td>160</td>\n\t                    \n\t                    <td>Rhodococcus equi 103S chromosome.</td>\n\t                    \n\t                    <td>NC_014659.1.cluster001.gbk</td>\n\t                    \n\t            </tr>\n\t            <tr>\n\t                <td>23368</td>\n\t                \n\t                    <td>orn</td>\n\t                    \n\t                    <td>GGEPARPAVVRAER</td>\n\t                    \n\t                    <td>ser</td>\n\t                    \n\t                    <td>14</td>\n\t                    \n\t                    <td>Amycolatopsis sp. MJM2582 contig00002, whole genom...</td>\n\t                    \n\t                    <td>NZ_JPLW01000001.1.cluster003.gbk</td>\n\t                    \n\t            </tr>\n\t            <tr>\n\t                <td>23612</td>\n\t                \n\t                    <td>orn</td>\n\t                    \n\t                    <td>GGRPARPVLKPVAER</td>\n\t                    \n\t                    <td>ser</td>\n\t                    \n\t                    <td>15</td>\n\t                    \n\t                    <td>Streptomyces fulvoviolaceus strain NRRL B-2870 con...</td>\n\t                    \n\t                    <td>NZ_JOEY01000001.1.cluster001.gbk</td>\n\t                    \n\t            </tr>\n\t            <tr>\n\t                <td>24095</td>\n\t                \n\t                    <td>orn</td>\n\t                    \n\t                    <td>EGDDRRPPLVAAPR</td>\n\t                    \n\t                    <td>ser</td>\n\t                    \n\t                    <td>14</td>\n\t                    \n\t                    <td>Mycobacterium smegmatis MKD8 chromosome, whole gen...</td>\n\t                    \n\t                    <td>NZ_CM001762.1.cluster001.gbk</td>\n\t                    \n\t            </tr>\n\t            <tr>\n\t                <td>24215</td>\n\t                \n\t                    <td>orn</td>\n\t                    \n\t                    <td>QCISELSSSSAHGTQDLAVFARAPRL</td>\n\t                    \n\t                    <td>ser</td>\n\t                    \n\t                    <td>26</td>\n\t                    \n\t                    <td>Vibrio cyclitrophicus ZF99 ZF-99_contig_13, whole ...</td>\n\t                    \n\t                    <td>NZ_AIDL02000001.1.cluster001.gbk</td>\n\t                    \n\t            </tr>\n\t            <tr>\n\t                <td>24702</td>\n\t                \n\t                    <td>orn</td>\n\t                    \n\t                    <td>DGSVPSALKSVKEQLRRVPNHGFGYGALRYLSAAGAELASGSAAPVLFNY...</td>\n\t                    \n\t                    <td>ser</td>\n\t                    \n\t                    <td>160</td>\n\t                    \n\t                    <td>Rhodococcus equi NBRC 101255 = C 7 contig10, whole...</td>\n\t                    \n\t                    <td>NZ_APJC01000001.1.cluster001.gbk</td>\n\t                    \n\t            </tr>\n\t            <tr>\n\t                <td>24739</td>\n\t                \n\t                    <td>orn</td>\n\t                    \n\t                    <td>QCFSELSSSSAHGTQDLAVFARAPRL</td>\n\t                    \n\t                    <td>ser</td>\n\t                    \n\t                    <td>26</td>\n\t                    \n\t                    <td>Vibrio cyclitrophicus ZF255 subcontig_45, whole ge...</td>\n\t                    \n\t                    <td>NZ_AIDP01000001.1.cluster001.gbk</td>\n\t                    \n\t            </tr>\n\t            <tr>\n\t                <td>24786</td>\n\t                \n\t                    <td>orn</td>\n\t                    \n\t                    <td>DPGVAAGVAIRGIKEQLRQVPDQGMGYGLLRYLGEPGVRAELADAAQPSI...</td>\n\t                    \n\t                    <td>ser</td>\n\t                    \n\t                    <td>167</td>\n\t                    \n\t                    <td>Pseudomonas fragi A22 genomic scaffold PSEF27, who...</td>\n\t                    \n\t                    <td>NZ_JH604574.1.cluster002.gbk</td>\n\t                    \n\t            </tr>\n\t            <tr>\n\t                <td>24923</td>\n\t                \n\t                    <td>orn</td>\n\t                    \n\t                    <td>QCISELSSSSAHGTQDLAVFARAPRL</td>\n\t                    \n\t                    <td>ser</td>\n\t                    \n\t                    <td>26</td>\n\t                    \n\t                    <td>Vibrio cyclitrophicus ZF170 ZF-170_contig_144, who...</td>\n\t                    \n\t                    <td>NZ_AIDM02000001.1.cluster001.gbk</td>\n\t                    \n\t            </tr>\n\t            <tr>\n\t                <td>25011</td>\n\t                \n\t                    <td>orn</td>\n\t                    \n\t                    <td>AAADEAGIADALKAVKDQLRRIPGSGFGYGALRYLGVPKPELALAPTPQV...</td>\n\t                    \n\t                    <td>ser</td>\n\t                    \n\t                    <td>160</td>\n\t                    \n\t                    <td>Rhodococcus sp. LB1 contig_100, whole genome shotg...</td>\n\t                    \n\t                    <td>NZ_LTCZ01000001.1.cluster002.gbk</td>\n\t                    \n\t            </tr>\n\t            <tr>\n\t                <td>25098</td>\n\t                \n\t                    <td>orn</td>\n\t                    \n\t                    <td>AAETDSAPAILPVSR</td>\n\t                    \n\t                    <td>ser</td>\n\t                    \n\t                    <td>15</td>\n\t                    \n\t                    <td>Pseudomonas veronii 1YB2 Contig101, whole genome s...</td>\n\t                    \n\t                    <td>NZ_JGYI01000001.1.cluster001.gbk</td>\n\t                    \n\t            </tr>\n\t            <tr>\n\t                <td>25120</td>\n\t                \n\t                    <td>orn</td>\n\t                    \n\t                    <td>IAKESVFHSIGPAGEM</td>\n\t                    \n\t                    <td>ser</td>\n\t                    \n\t                    <td>16</td>\n\t                    \n\t                    <td>Paenibacillus polymyxa strain YC0573, complete gen...</td>\n\t                    \n\t                    <td>NZ_CP017968.2.cluster006.gbk</td>\n\t                    \n\t            </tr>\n\t            <tr>\n\t                <td>25346</td>\n\t                \n\t                    <td>orn</td>\n\t                    \n\t                    <td>AQPAGDAAALTALRAVKRVMRAIPDHGLGYGVLRYLDEEHGPALGALEAQ...</td>\n\t                    \n\t                    <td>ser</td>\n\t                    \n\t                    <td>187</td>\n\t                    \n\t                    <td>Chromobacterium violaceum strain LK17, whole genom...</td>\n\t                    \n\t                    <td>NZ_LDUU01000001.1.cluster003.gbk</td>\n\t                    \n\t            </tr>\n\t            <tr>\n\t                <td>25593</td>\n\t                \n\t                    <td>orn</td>\n\t                    \n\t                    <td>QCISELSLWSAHGTQDLAVFARAPRL</td>\n\t                    \n\t                    <td>ser</td>\n\t                    \n\t                    <td>26</td>\n\t                    \n\t                    <td>Vibrio cyclitrophicus ZF65 ZF-65_contig_22, whole ...</td>\n\t                    \n\t                    <td>NZ_AIDK02000001.1.cluster001.gbk</td>\n\t                    \n\t            </tr>\n\t            <tr>\n\t                <td>25618</td>\n\t                \n\t                    <td>orn</td>\n\t                    \n\t                    <td>GGEPARPAVVRAER</td>\n\t                    \n\t                    <td>ser</td>\n\t                    \n\t                    <td>14</td>\n\t                    \n\t                    <td>Amycolatopsis orientalis DSM 40040 = KCTC 9412 con...</td>\n\t                    \n\t                    <td>NZ_ASJB01000001.1.cluster001.gbk</td>\n\t                    \n\t            </tr>\n\t            <tr>\n\t                <td>25735</td>\n\t                \n\t                    <td>orn</td>\n\t                    \n\t                    <td>HVFAVPETLNELDLEGWICFVKESLRRVPDKGAGYGIRRYIHNDTSIEVV...</td>\n\t                    \n\t                    <td>ser</td>\n\t                    \n\t                    <td>173</td>\n\t                    \n\t                    <td>Teredinibacter turnerae T8513 K382DRAFT_scaffold00...</td>\n\t                    \n\t                    <td>NZ_AUGB01000001.1.cluster005.gbk</td>\n\t                    \n\t            </tr>\n\t            <tr>\n\t                <td>25822</td>\n\t                \n\t                    <td>orn</td>\n\t                    \n\t                    <td>GNPAATLKLVKDAVRTIPGDGLGYGLLRDRLPAAPRDILVNYLGRIGAGE...</td>\n\t                    \n\t                    <td>ser</td>\n\t                    \n\t                    <td>149</td>\n\t                    \n\t                    <td>Actinokineospora inagensis DSM 44258 genomic scaff...</td>\n\t                    \n\t                    <td>NZ_KI519516.1.cluster001.gbk</td>\n\t                    \n\t            </tr>\n\t            <tr>\n\t                <td>26024</td>\n\t                \n\t                    <td>orn</td>\n\t                    \n\t                    <td>QCISELSSWSAHGTQDLAVFARAPRL</td>\n\t                    \n\t                    <td>ser</td>\n\t                    \n\t                    <td>26</td>\n\t                    \n\t                    <td>Vibrio cyclitrophicus 1F53 1F-53_contig_113, whole...</td>\n\t                    \n\t                    <td>NZ_AICZ02000002.1.cluster001.gbk</td>\n\t                    \n\t            </tr>\n\t            <tr>\n\t                <td>26195</td>\n\t                \n\t                    <td>orn</td>\n\t                    \n\t                    <td>LDAPTRPELTAAAR</td>\n\t                    \n\t                    <td>ser</td>\n\t                    \n\t                    <td>14</td>\n\t                    \n\t                    <td>Mycobacterium neoaurum strain MN2 contig04, whole ...</td>\n\t                    \n\t                    <td>NZ_LQMX01000001.1.cluster002.gbk</td>\n\t                    \n\t            </tr>\n\t            <tr>\n\t                <td>26775</td>\n\t                \n\t                    <td>orn</td>\n\t                    \n\t                    <td>HVFSVPETLDELDLESWICFVKESLRSVPDKGAGYGVRRYIHNDASIDVV...</td>\n\t                    \n\t                    <td>ser</td>\n\t                    \n\t                    <td>173</td>\n\t                    \n\t                    <td>Teredinibacter turnerae T7901, complete genome.</td>\n\t                    \n\t                    <td>NC_012997.1.cluster003.gbk</td>\n\t                    \n\t            </tr>\n\t            <tr>\n\t                <td>27212</td>\n\t                \n\t                    <td>orn</td>\n\t                    \n\t                    <td>KLVPTDSLAGSLKQIKEQLRAIPDKGLGFGALRYLGNAEAQQALSELPRP...</td>\n\t                    \n\t                    <td>ser</td>\n\t                    \n\t                    <td>169</td>\n\t                    \n\t                    <td>Pseudomonas fluorescens strain H21 FCC4LTTACXX-wHA...</td>\n\t                    \n\t                    <td>NZ_LACF01000001.1.cluster003.gbk</td>\n\t                    \n\t            </tr>\n\t            <tr>\n\t                <td>27325</td>\n\t                \n\t                    <td>orn</td>\n\t                    \n\t                    <td>QCTSLKEPAVTIKPVPR</td>\n\t                    \n\t                    <td>ser</td>\n\t                    \n\t                    <td>17</td>\n\t                    \n\t                    <td>Vibrio neptunius strain S2394 contig0001, whole ge...</td>\n\t                    \n\t                    <td>NZ_JXXU01000001.1.cluster001.gbk</td>\n\t                    \n\t            </tr>\n\t            <tr>\n\t                <td>27515</td>\n\t                \n\t                    <td>orn</td>\n\t                    \n\t                    <td>SAASALPAIVALPR</td>\n\t                    \n\t                    <td>ser</td>\n\t                    \n\t                    <td>14</td>\n\t                    \n\t                    <td>Rhodococcus sp. RD6.2 genome assembly RD6.2, scaff...</td>\n\t                    \n\t                    <td>NZ_CVQP01000001.1.cluster001.gbk</td>\n\t                    \n\t            </tr>\n\t            <tr>\n\t                <td>27565</td>\n\t                \n\t                    <td>orn</td>\n\t                    \n\t                    <td>VEPDTEIAEGPDDRT</td>\n\t                    \n\t                    <td>ser</td>\n\t                    \n\t                    <td>15</td>\n\t                    \n\t                    <td>Pseudonocardia spinosispora DSM 44797 G406DRAFT_sc...</td>\n\t                    \n\t                    <td>NZ_KE386833.1.cluster001.gbk</td>\n\t                    \n\t            </tr>\n\t            <tr>\n\t                <td>27857</td>\n\t                \n\t                    <td>orn</td>\n\t                    \n\t                    <td>AQPAGDAAALTALRAVKRVMRAIPDHGLGYGVLRYLDEEHGPALGALEAQ...</td>\n\t                    \n\t                    <td>ser</td>\n\t                    \n\t                    <td>187</td>\n\t                    \n\t                    <td>Chromobacterium violaceum strain LK30, whole genom...</td>\n\t                    \n\t                    <td>NZ_LDUX01000001.1.cluster001.gbk</td>\n\t                    \n\t            </tr>\n\t            <tr>\n\t                <td>27967</td>\n\t                \n\t                    <td>orn</td>\n\t                    \n\t                    <td>CNSHESQASVLQILPVSR</td>\n\t                    \n\t                    <td>ser</td>\n\t                    \n\t                    <td>18</td>\n\t                    \n\t                    <td>Pseudomonas fluorescens strain Pt14, complete geno...</td>\n\t                    \n\t                    <td>NZ_CP017296.1.cluster002.gbk</td>\n\t                    \n\t            </tr>\n\t            <tr>\n\t                <td>28515</td>\n\t                \n\t                    <td>orn</td>\n\t                    \n\t                    <td>IAKESVFHSIGPAGEM</td>\n\t                    \n\t                    <td>ser</td>\n\t                    \n\t                    <td>16</td>\n\t                    \n\t                    <td>Paenibacillus polymyxa strain Sb3-1, complete geno...</td>\n\t                    \n\t                    <td>NZ_CP010268.1.cluster006.gbk</td>\n\t                    \n\t            </tr>\n\t            <tr>\n\t                <td>28956</td>\n\t                \n\t                    <td>orn</td>\n\t                    \n\t                    <td>SVAAMPAIRPVPRS</td>\n\t                    \n\t                    <td>ser</td>\n\t                    \n\t                    <td>14</td>\n\t                    \n\t                    <td>Alcanivorax sp. HI0033 HI0033_c95, whole genome sh...</td>\n\t                    \n\t                    <td>NZ_LWET01000001.1.cluster002.gbk</td>\n\t                    \n\t            </tr>\n\t            <tr>\n\t                <td>29013</td>\n\t                \n\t                    <td>orn</td>\n\t                    \n\t                    <td>HVFSVPETLDQLDLESWICFVKESLRSVPDKGAGYGVRRYIHNDASIDIV...</td>\n\t                    \n\t                    <td>ser</td>\n\t                    \n\t                    <td>173</td>\n\t                    \n\t                    <td>Teredinibacter turnerae T8602 A3CMDRAFT_scaffold_4...</td>\n\t                    \n\t                    <td>NZ_AQUT01000001.1.cluster003.gbk</td>\n\t                    \n\t            </tr>\n\t            <tr>\n\t                <td>29037</td>\n\t                \n\t                    <td>orn</td>\n\t                    \n\t                    <td>ADMGSSIKRIKEQLRAAPDKGLGFGVLRYLADAEVRQAIEALPVPRVTFN...</td>\n\t                    \n\t                    <td>ser</td>\n\t                    \n\t                    <td>165</td>\n\t                    \n\t                    <td>Pseudomonas sp. VLB120, complete genome.</td>\n\t                    \n\t                    <td>NC_022738.1.cluster001.gbk</td>\n\t                    \n\t            </tr>\n\t            <tr>\n\t                <td>29083</td>\n\t                \n\t                    <td>orn</td>\n\t                    \n\t                    <td>GGEPARPAVVRAER</td>\n\t                    \n\t                    <td>ser</td>\n\t                    \n\t                    <td>14</td>\n\t                    \n\t                    <td>Amycolatopsis japonica strain MG417-CF17, complete...</td>\n\t                    \n\t                    <td>NZ_CP008953.1.cluster005.gbk</td>\n\t                    \n\t            </tr>\n\t            <tr>\n\t                <td>29596</td>\n\t                \n\t                    <td>orn</td>\n\t                    \n\t                    <td>PAPTLAGSLKAIKEQLRAIPDKGLGFGALRYLGSPAIRQALGQLPKPRIT...</td>\n\t                    \n\t                    <td>ser</td>\n\t                    \n\t                    <td>168</td>\n\t                    \n\t                    <td>Pseudomonas sp. MRSN12121, complete genome.</td>\n\t                    \n\t                    <td>NZ_CP010892.1.cluster002.gbk</td>\n\t                    \n\t            </tr>\n\t            <tr>\n\t                <td>29857</td>\n\t                \n\t                    <td>orn</td>\n\t                    \n\t                    <td>DPGADAGVAIRGIKEQLRHVPDHGMGYGILRSLGEPQVRGELAAGSQPSI...</td>\n\t                    \n\t                    <td>ser</td>\n\t                    \n\t                    <td>166</td>\n\t                    \n\t                    <td>Pseudomonas sp. RIT-PI-a NODE_2_length_507126_cov_...</td>\n\t                    \n\t                    <td>NZ_LGIR01000032.1.cluster001.gbk</td>\n\t                    \n\t            </tr>\n\t            <tr>\n\t                <td>29940</td>\n\t                \n\t                    <td>orn</td>\n\t                    \n\t                    <td>SRPARPAVTATAR</td>\n\t                    \n\t                    <td>ser</td>\n\t                    \n\t                    <td>13</td>\n\t                    \n\t                    <td>Streptomyces turgidiscabies Car8 gcontig_111318939...</td>\n\t                    \n\t                    <td>NZ_AEJB01000001.1.cluster005.gbk</td>\n\t                    \n\t            </tr>\n\t            <tr>\n\t                <td>30007</td>\n\t                \n\t                    <td>orn</td>\n\t                    \n\t                    <td>CQPANAMPDIQPVPRH</td>\n\t                    \n\t                    <td>ser</td>\n\t                    \n\t                    <td>16</td>\n\t                    \n\t                    <td>Alcanivorax sp. NBRC 101098 DNA, complete genome.</td>\n\t                    \n\t                    <td>NZ_AP014613.1.cluster002.gbk</td>\n\t                    \n\t            </tr>\n\t            <tr>\n\t                <td>30078</td>\n\t                \n\t                    <td>orn</td>\n\t                    \n\t                    <td>ALTLTDSLKGIKEQLRAIPDKGIGFGALRYLGQPQVREALARLPQPRITF...</td>\n\t                    \n\t                    <td>ser</td>\n\t                    \n\t                    <td>167</td>\n\t                    \n\t                    <td>Pseudomonas sp. 1 R 17, whole genome shotgun seque...</td>\n\t                    \n\t                    <td>NZ_FKLB01000069.1.cluster003.gbk</td>\n\t                    \n\t            </tr>\n\t            <tr>\n\t                <td>30209</td>\n\t                \n\t                    <td>orn</td>\n\t                    \n\t                    <td>GTAAPDLEASGELAVVLKSVKEQLRRVPNAGFGYGALRYLGSSDQLRSVA...</td>\n\t                    \n\t                    <td>ser</td>\n\t                    \n\t                    <td>162</td>\n\t                    \n\t                    <td>Rhodococcus erythropolis CCM2595, complete genome.</td>\n\t                    \n\t                    <td>NC_022115.1.cluster001.gbk</td>\n\t                    \n\t            </tr>\n\t            <tr>\n\t                <td>30214</td>\n\t                \n\t                    <td>orn</td>\n\t                    \n\t                    <td>DTAAPDLEASGELAVVLKSVKEQLRRVPNAGFGYGALRYLGSSDQLRSVA...</td>\n\t                    \n\t                    <td>ser</td>\n\t                    \n\t                    <td>162</td>\n\t                    \n\t                    <td>Rhodococcus erythropolis strain MI2 RERY_contig000...</td>\n\t                    \n\t                    <td>NZ_LYPG01000001.1.cluster007.gbk</td>\n\t                    \n\t            </tr>\n\t            <tr>\n\t                <td>30360</td>\n\t                \n\t                    <td>orn</td>\n\t                    \n\t                    <td>ASPARPAVTPVTDR</td>\n\t                    \n\t                    <td>ser</td>\n\t                    \n\t                    <td>14</td>\n\t                    \n\t                    <td>Streptomyces prunicolor NBRC 13075, whole genome s...</td>\n\t                    \n\t                    <td>NZ_BARF01000197.1.cluster004.gbk</td>\n\t                    \n\t            </tr>\n\t            <tr>\n\t                <td>30454</td>\n\t                \n\t                    <td>orn</td>\n\t                    \n\t                    <td>LAAGTQDRAPALQAVAHEG</td>\n\t                    \n\t                    <td>ser</td>\n\t                    \n\t                    <td>19</td>\n\t                    \n\t                    <td>Pseudomonas putida NB2011 genomic scaffold PT1_sca...</td>\n\t                    \n\t                    <td>NZ_KE166371.1.cluster001.gbk</td>\n\t                    \n\t            </tr>\n\t            <tr>\n\t                <td>30480</td>\n\t                \n\t                    <td>orn</td>\n\t                    \n\t                    <td>QCISELSSWSAHGTQDLAVFARAPRL</td>\n\t                    \n\t                    <td>ser</td>\n\t                    \n\t                    <td>26</td>\n\t                    \n\t                    <td>Vibrio cyclitrophicus FF274 subcontig_85, whole ge...</td>\n\t                    \n\t                    <td>NZ_AIDG01000001.1.cluster001.gbk</td>\n\t                    \n\t            </tr>\n\t            <tr>\n\t                <td>30642</td>\n\t                \n\t                    <td>orn</td>\n\t                    \n\t                    <td>AAADEAGIADALKAVKDQLRRIPGSGFGYGALRYLGVPKPELANAPTPQV...</td>\n\t                    \n\t                    <td>ser</td>\n\t                    \n\t                    <td>160</td>\n\t                    \n\t                    <td>Rhodococcus opacus strain 1CP, complete genome.</td>\n\t                    \n\t                    <td>NZ_CP009111.1.cluster001.gbk</td>\n\t                    \n\t            </tr>\n\t            <tr>\n\t                <td>30758</td>\n\t                \n\t                    <td>orn</td>\n\t                    \n\t                    <td>GTTDSGDADALARGVKAVKEQLRAVPGNGIGYGVLRYLAGADLGSGPGAP...</td>\n\t                    \n\t                    <td>ser</td>\n\t                    \n\t                    <td>167</td>\n\t                    \n\t                    <td>Rhodococcus triatomae BKS 15-14 Contig0016, whole ...</td>\n\t                    \n\t                    <td>NZ_AODO01000001.1.cluster003.gbk</td>\n\t                    \n\t            </tr>\n\t            <tr>\n\t                <td>30925</td>\n\t                \n\t                    <td>orn</td>\n\t                    \n\t                    <td>DGSVPSALKSVKEQLRRVPNHGFGYGALRYLSAAGAELASGSAAPVLFNY...</td>\n\t                    \n\t                    <td>ser</td>\n\t                    \n\t                    <td>160</td>\n\t                    \n\t                    <td>Rhodococcus equi NBRC 101255 = C 7 DNA, contig: RE...</td>\n\t                    \n\t                    <td>NZ_BCRL01000001.1.cluster003.gbk</td>\n\t                    \n\t            </tr>\n\t            <tr>\n\t                <td>31012</td>\n\t                \n\t                    <td>orn</td>\n\t                    \n\t                    <td>AQPAGDAAALTALRAVKRVMRAIPDHGLGYGVLRYLDEEHGPALGALEAQ...</td>\n\t                    \n\t                    <td>ser</td>\n\t                    \n\t                    <td>187</td>\n\t                    \n\t                    <td>Chromobacterium violaceum strain LK6, whole genome...</td>\n\t                    \n\t                    <td>NZ_LDUM01000001.1.cluster001.gbk</td>\n\t                    \n\t            </tr>\n\t            <tr>\n\t                <td>31096</td>\n\t                \n\t                    <td>orn</td>\n\t                    \n\t                    <td>SVAAMPAIRPVPRS</td>\n\t                    \n\t                    <td>ser</td>\n\t                    \n\t                    <td>14</td>\n\t                    \n\t                    <td>Alcanivorax sp. HI0007 HI0007_c11, whole genome sh...</td>\n\t                    \n\t                    <td>NZ_LWEJ01000001.1.cluster001.gbk</td>\n\t                    \n\t            </tr>\n\t            <tr>\n\t                <td>31438</td>\n\t                \n\t                    <td>orn</td>\n\t                    \n\t                    <td>DPGVAAGVAIRGIKEQLRQVPDQGMGYGLLRYLGEPGVRAELADAAQPSI...</td>\n\t                    \n\t                    <td>ser</td>\n\t                    \n\t                    <td>167</td>\n\t                    \n\t                    <td>Pseudomonas sp. Lz4W Contig19, whole genome shotgu...</td>\n\t                    \n\t                    <td>NZ_AOGS01000001.1.cluster001.gbk</td>\n\t                    \n\t            </tr>\n\t            <tr>\n\t                <td>31805</td>\n\t                \n\t                    <td>orn</td>\n\t                    \n\t                    <td>KPAAQAPRPALVASQR</td>\n\t                    \n\t                    <td>ser</td>\n\t                    \n\t                    <td>16</td>\n\t                    \n\t                    <td>Mycobacterium sp. Root135 contig_6, whole genome s...</td>\n\t                    \n\t                    <td>NZ_LMEZ01000001.1.cluster002.gbk</td>\n\t                    \n\t            </tr>\n\t            <tr>\n\t                <td>32042</td>\n\t                \n\t                    <td>orn</td>\n\t                    \n\t                    <td>GRPARPVLRPVSER</td>\n\t                    \n\t                    <td>ser</td>\n\t                    \n\t                    <td>14</td>\n\t                    \n\t                    <td>Streptomyces ipomoeae 91-03 gcontig_1108499715933,...</td>\n\t                    \n\t                    <td>NZ_AEJC01000001.1.cluster002.gbk</td>\n\t                    \n\t            </tr>\n\t            <tr>\n\t                <td>32419</td>\n\t                \n\t                    <td>orn</td>\n\t                    \n\t                    <td>KLVPTDSLAGSLKQIKEQLRAIPDKGLGFGALRYLGNAEAQQALSELPRP...</td>\n\t                    \n\t                    <td>ser</td>\n\t                    \n\t                    <td>169</td>\n\t                    \n\t                    <td>Pseudomonas sp. R81 genomic scaffold scaffold00001...</td>\n\t                    \n\t                    <td>NZ_JH635997.1.cluster003.gbk</td>\n\t                    \n\t            </tr>\n\t            <tr>\n\t                <td>32768</td>\n\t                \n\t                    <td>orn</td>\n\t                    \n\t                    <td>GADTARPPVTAVTDR</td>\n\t                    \n\t                    <td>ser</td>\n\t                    \n\t                    <td>15</td>\n\t                    \n\t                    <td>Streptomyces sp. NRRL B-12105 contig2.1, whole gen...</td>\n\t                    \n\t                    <td>NZ_JNZW01000001.1.cluster001.gbk</td>\n\t                    \n\t            </tr>\n\t            <tr>\n\t                <td>32860</td>\n\t                \n\t                    <td>orn</td>\n\t                    \n\t                    <td>TTTAEEDREADMARALKAVKDQLRRIPGSGFGYGALRYLGTPRPELERAP...</td>\n\t                    \n\t                    <td>ser</td>\n\t                    \n\t                    <td>170</td>\n\t                    \n\t                    <td>Rhodococcus sp. WMMA185, complete genome.</td>\n\t                    \n\t                    <td>NZ_CP017014.1.cluster007.gbk</td>\n\t                    \n\t            </tr>\n\t            <tr>\n\t                <td>32936</td>\n\t                \n\t                    <td>orn</td>\n\t                    \n\t                    <td>DTAAPDLEASGELAVVLKSVKEQLRRVPNAGFGYGALRYLGSSDQLRSVA...</td>\n\t                    \n\t                    <td>ser</td>\n\t                    \n\t                    <td>162</td>\n\t                    \n\t                    <td>Rhodococcus erythropolis R138, complete genome.</td>\n\t                    \n\t                    <td>NZ_CP007255.1.cluster007.gbk</td>\n\t                    \n\t            </tr>\n\t            <tr>\n\t                <td>32945</td>\n\t                \n\t                    <td>orn</td>\n\t                    \n\t                    <td>DTAAPDLEASGELAVVLKSVKEQLRRVPNAGFGYGALRYLGSSDQLRSVA...</td>\n\t                    \n\t                    <td>ser</td>\n\t                    \n\t                    <td>162</td>\n\t                    \n\t                    <td>Rhodococcus erythropolis DN1 contig00003, whole ge...</td>\n\t                    \n\t                    <td>NZ_AUZK01000001.1.cluster001.gbk</td>\n\t                    \n\t            </tr>\n\t            <tr>\n\t                <td>32950</td>\n\t                \n\t                    <td>orn</td>\n\t                    \n\t                    <td>VLASQAADQTLAPPMLAVGR</td>\n\t                    \n\t                    <td>ser</td>\n\t                    \n\t                    <td>20</td>\n\t                    \n\t                    <td>Pseudomonas sp. 2-92(2010) strain 2-92 scaffold14....</td>\n\t                    \n\t                    <td>NZ_AYTD01000013.1.cluster003.gbk</td>\n\t                    \n\t            </tr>\n\t            <tr>\n\t                <td>33116</td>\n\t                \n\t                    <td>orn</td>\n\t                    \n\t                    <td>IAKESVFHSIGPAGEM</td>\n\t                    \n\t                    <td>ser</td>\n\t                    \n\t                    <td>16</td>\n\t                    \n\t                    <td>Paenibacillus polymyxa strain CFSAN034343 NODE_12_...</td>\n\t                    \n\t                    <td>NZ_LYND01000011.1.cluster002.gbk</td>\n\t                    \n\t            </tr>\n\t            <tr>\n\t                <td>33238</td>\n\t                \n\t                    <td>orn</td>\n\t                    \n\t                    <td>AAETDSAPAILPVSR</td>\n\t                    \n\t                    <td>ser</td>\n\t                    \n\t                    <td>15</td>\n\t                    \n\t                    <td>Pseudomonas veronii 1YB2 Contig62, whole genome sh...</td>\n\t                    \n\t                    <td>NZ_JGYI01000001.1.cluster004.gbk</td>\n\t                    \n\t            </tr>\n\t            <tr>\n\t                <td>33555</td>\n\t                \n\t                    <td>orn</td>\n\t                    \n\t                    <td>LRTNDRKLSLPPIQPRTN</td>\n\t                    \n\t                    <td>ser</td>\n\t                    \n\t                    <td>18</td>\n\t                    \n\t                    <td>Calothrix sp. PCC 7103 Cal7103DRAFT_CPM.1, whole g...</td>\n\t                    \n\t                    <td>NZ_KB217472.1.cluster005.gbk</td>\n\t                    \n\t            </tr>\n\t            <tr>\n\t                <td>33882</td>\n\t                \n\t                    <td>orn</td>\n\t                    \n\t                    <td>IAKESVFHSIGPAGEM</td>\n\t                    \n\t                    <td>ser</td>\n\t                    \n\t                    <td>16</td>\n\t                    \n\t                    <td>Paenibacillus peoriae strain HS311, complete genom...</td>\n\t                    \n\t                    <td>NZ_CP011512.1.cluster005.gbk</td>\n\t                    \n\t            </tr>\n\t            <tr>\n\t                <td>33920</td>\n\t                \n\t                    <td>orn</td>\n\t                    \n\t                    <td>AAETDSAPAILPVSR</td>\n\t                    \n\t                    <td>ser</td>\n\t                    \n\t                    <td>15</td>\n\t                    \n\t                    <td>Pseudomonas veronii strain DSM 11331 10_183499_22....</td>\n\t                    \n\t                    <td>NZ_JYLL01000010.1.cluster001.gbk</td>\n\t                    \n\t            </tr>\n\t            <tr>\n\t                <td>34193</td>\n\t                \n\t                    <td>orn</td>\n\t                    \n\t                    <td>PGAAVALPPVTTRTR</td>\n\t                    \n\t                    <td>ser</td>\n\t                    \n\t                    <td>15</td>\n\t                    \n\t                    <td>Rhodococcus pyridinivorans KG-16 contig00004, whol...</td>\n\t                    \n\t                    <td>NZ_AZXY01000001.1.cluster004.gbk</td>\n\t                    \n\t            </tr>\n\t            <tr>\n\t                <td>34245</td>\n\t                \n\t                    <td>orn</td>\n\t                    \n\t                    <td>AAADIGATIKVVKQSLREVPDAGLGFGVLQYLAGDGKRAALNALPQARIG...</td>\n\t                    \n\t                    <td>ser</td>\n\t                    \n\t                    <td>161</td>\n\t                    \n\t                    <td>Methylomicrobium album BG8 chromosome, whole genom...</td>\n\t                    \n\t                    <td>NZ_CM001475.1.cluster002.gbk</td>\n\t                    \n\t            </tr>\n\t            <tr>\n\t                <td>34279</td>\n\t                \n\t                    <td>orn</td>\n\t                    \n\t                    <td>DTAAPDLEASGELAVVLKSVKEQLRRVPNAGFGYGALRYLGSSDQLRSVA...</td>\n\t                    \n\t                    <td>ser</td>\n\t                    \n\t                    <td>162</td>\n\t                    \n\t                    <td>Rhodococcus erythropolis NBRC 15567 DNA, contig: R...</td>\n\t                    \n\t                    <td>NZ_BCRM01000001.1.cluster001.gbk</td>\n\t                    \n\t            </tr>\n\t            <tr>\n\t                <td>34408</td>\n\t                \n\t                    <td>orn</td>\n\t                    \n\t                    <td>QCTSLKEPAVTIKAVPRM</td>\n\t                    \n\t                    <td>ser</td>\n\t                    \n\t                    <td>18</td>\n\t                    \n\t                    <td>Vibrio coralliilyticus ATCC BAA-450 VIC.Contig71, ...</td>\n\t                    \n\t                    <td>NZ_ACZN01000020.1.cluster001.gbk</td>\n\t                    \n\t            </tr>\n\t            <tr>\n\t                <td>34542</td>\n\t                \n\t                    <td>orn</td>\n\t                    \n\t                    <td>HVFAVPETLNELDLEGWICFVKESLRSVPDKGAGYGIRRYIHNDTSIEVV...</td>\n\t                    \n\t                    <td>ser</td>\n\t                    \n\t                    <td>173</td>\n\t                    \n\t                    <td>Teredinibacter turnerae T7902 genomic scaffold YUK...</td>\n\t                    \n\t                    <td>NZ_KB900629.1.cluster004.gbk</td>\n\t                    \n\t            </tr>\n\t            <tr>\n\t                <td>34592</td>\n\t                \n\t                    <td>orn</td>\n\t                    \n\t                    <td>QCISELSSSSAHGTQDLAVFARAPRL</td>\n\t                    \n\t                    <td>ser</td>\n\t                    \n\t                    <td>26</td>\n\t                    \n\t                    <td>Vibrio cyclitrophicus ZF14 ZF-14_contig_2, whole g...</td>\n\t                    \n\t                    <td>NZ_AIDH02000001.1.cluster001.gbk</td>\n\t                    \n\t            </tr>\n\t            <tr>\n\t                <td>34633</td>\n\t                \n\t                    <td>orn</td>\n\t                    \n\t                    <td>SAASAQPSIVVGNRP</td>\n\t                    \n\t                    <td>ser</td>\n\t                    \n\t                    <td>15</td>\n\t                    \n\t                    <td>Rhodococcus rhodochrous strain NRRL B-1306 contig2...</td>\n\t                    \n\t                    <td>NZ_JNWS01000001.1.cluster002.gbk</td>\n\t                    \n\t            </tr>\n\t            <tr>\n\t                <td>35183</td>\n\t                \n\t                    <td>orn</td>\n\t                    \n\t                    <td>ERDRGLAYHIKRAKEELRQIPNKGIGYGICRYLSEPDDSLEWGAAPEISF...</td>\n\t                    \n\t                    <td>ser</td>\n\t                    \n\t                    <td>166</td>\n\t                    \n\t                    <td>Paenibacillus alvei TS-15 PAALTS15_38, whole genom...</td>\n\t                    \n\t                    <td>NZ_ATMT01000001.1.cluster006.gbk</td>\n\t                    \n\t            </tr>\n\t            <tr>\n\t                <td>35185</td>\n\t                \n\t                    <td>orn</td>\n\t                    \n\t                    <td>SDPNKSLSYRIKRMKENLRRIPNKGIGYGIHRYLSGSGTSGTKNVSRSEA...</td>\n\t                    \n\t                    <td>ser</td>\n\t                    \n\t                    <td>174</td>\n\t                    \n\t                    <td>Paenibacillus alvei TS-15 PAALTS15_38, whole genom...</td>\n\t                    \n\t                    <td>NZ_ATMT01000001.1.cluster006.gbk</td>\n\t                    \n\t            </tr>\n\t            <tr>\n\t                <td>35357</td>\n\t                \n\t                    <td>orn</td>\n\t                    \n\t                    <td>HVFSVPETLDELDLESWICFVKESLRSVPDKGAGYAVRRYIHNDASIDIV...</td>\n\t                    \n\t                    <td>ser</td>\n\t                    \n\t                    <td>173</td>\n\t                    \n\t                    <td>Teredinibacter turnerae T8402 genomic scaffold G00...</td>\n\t                    \n\t                    <td>NZ_KB906769.1.cluster003.gbk</td>\n\t                    \n\t            </tr>\n\t            <tr>\n\t                <td>35458</td>\n\t                \n\t                    <td>orn</td>\n\t                    \n\t                    <td>QCISELSSSSAHGTQDLAVFARAPRL</td>\n\t                    \n\t                    <td>ser</td>\n\t                    \n\t                    <td>26</td>\n\t                    \n\t                    <td>Vibrio cyclitrophicus FF75 FF-75_contig_2, whole g...</td>\n\t                    \n\t                    <td>NZ_AIDE02000001.1.cluster001.gbk</td>\n\t                    \n\t            </tr>\n\t            <tr>\n\t                <td>35497</td>\n\t                \n\t                    <td>orn</td>\n\t                    \n\t                    <td>LVQPAKPLDLTPRHATT</td>\n\t                    \n\t                    <td>ser</td>\n\t                    \n\t                    <td>17</td>\n\t                    \n\t                    <td>Pseudomonas abietaniphila DNA, contig: 00206, whol...</td>\n\t                    \n\t                    <td>NZ_BBQR01000094.1.cluster001.gbk</td>\n\t                    \n\t            </tr>\n\t            <tr>\n\t                <td>35739</td>\n\t                \n\t                    <td>orn</td>\n\t                    \n\t                    <td>QCTSLKEPAVTIQAVPRM</td>\n\t                    \n\t                    <td>ser</td>\n\t                    \n\t                    <td>18</td>\n\t                    \n\t                    <td>Vibrio coralliilyticus strain RE98 chromosome 1, c...</td>\n\t                    \n\t                    <td>NZ_CP009617.1.cluster001.gbk</td>\n\t                    \n\t            </tr>\n\t            <tr>\n\t                <td>35963</td>\n\t                \n\t                    <td>orn</td>\n\t                    \n\t                    <td>QCTFTDVKNDTEVAFLERVSRL</td>\n\t                    \n\t                    <td>ser</td>\n\t                    \n\t                    <td>22</td>\n\t                    \n\t                    <td>Vibrio sp. HI00D65 HI00D65_c23, whole genome shotg...</td>\n\t                    \n\t                    <td>NZ_LWEH01000001.1.cluster002.gbk</td>\n\t                    \n\t            </tr>\n\t            <tr>\n\t                <td>36036</td>\n\t                \n\t                    <td>orn</td>\n\t                    \n\t                    <td>DPAAAAGAAIRGIKEQLRQVPDQGMGYGLLRYLGEPWVRAELAGAAQPSI...</td>\n\t                    \n\t                    <td>ser</td>\n\t                    \n\t                    <td>167</td>\n\t                    \n\t                    <td>Pseudomonas sp. L10.10, complete genome.</td>\n\t                    \n\t                    <td>NZ_CP012676.1.cluster001.gbk</td>\n\t                    \n\t            </tr>\n\t            <tr>\n\t                <td>36248</td>\n\t                \n\t                    <td>orn</td>\n\t                    \n\t                    <td>GEPARPAVVRAER</td>\n\t                    \n\t                    <td>ser</td>\n\t                    \n\t                    <td>13</td>\n\t                    \n\t                    <td>Amycolatopsis alba DSM 44262 scaffold1, whole geno...</td>\n\t                    \n\t                    <td>NZ_KB913032.1.cluster005.gbk</td>\n\t                    \n\t            </tr>\n\t            <tr>\n\t                <td>36340</td>\n\t                \n\t                    <td>orn</td>\n\t                    \n\t                    <td>ADSAPAVVVPPNRIPAGCTALTPDLLPLVTLEPAQLARIEALVPGGAAN</td>\n\t                    \n\t                    <td>ser</td>\n\t                    \n\t                    <td>49</td>\n\t                    \n\t                    <td>Chitiniphilus shinanonensis DSM 23277 genomic scaf...</td>\n\t                    \n\t                    <td>NZ_KB895334.1.cluster002.gbk</td>\n\t                    \n\t            </tr>\n\t            <tr>\n\t                <td>37064</td>\n\t                \n\t                    <td>orn</td>\n\t                    \n\t                    <td>AAADEAGIADALKMVKDQLRRVPGAGFGYGALRYLGAAEPEFGQEPTPQV...</td>\n\t                    \n\t                    <td>ser</td>\n\t                    \n\t                    <td>160</td>\n\t                    \n\t                    <td>Rhodococcus opacus B4 DNA, complete genome.</td>\n\t                    \n\t                    <td>NC_012522.1.cluster008.gbk</td>\n\t                    \n\t            </tr>\n\t            <tr>\n\t                <td>37406</td>\n\t                \n\t                    <td>orn</td>\n\t                    \n\t                    <td>QCISELSSWSAHGTQDLAVFARAPRL</td>\n\t                    \n\t                    <td>ser</td>\n\t                    \n\t                    <td>26</td>\n\t                    \n\t                    <td>Vibrio cyclitrophicus 1F273 1F-273_contig_571, who...</td>\n\t                    \n\t                    <td>NZ_AIDC02000001.1.cluster001.gbk</td>\n\t                    \n\t            </tr>\n\t            <tr>\n\t                <td>37436</td>\n\t                \n\t                    <td>orn</td>\n\t                    \n\t                    <td>DGSVPSALKSVKEQMRRVPNHGFGYGALRYLSAAGAELASGSAAPVLFNY...</td>\n\t                    \n\t                    <td>ser</td>\n\t                    \n\t                    <td>160</td>\n\t                    \n\t                    <td>Rhodococcus sp. Br-6, whole genome shotgun sequenc...</td>\n\t                    \n\t                    <td>NZ_BDGK01000001.1.cluster005.gbk</td>\n\t                    \n\t            </tr>\n\t            <tr>\n\t                <td>37795</td>\n\t                \n\t                    <td>orn</td>\n\t                    \n\t                    <td>AGRPARPVLEPVAER</td>\n\t                    \n\t                    <td>ser</td>\n\t                    \n\t                    <td>15</td>\n\t                    \n\t                    <td>Streptomyces davawensis strain JCM 4913 complete g...</td>\n\t                    \n\t                    <td>NC_020504.1.cluster007.gbk</td>\n\t                    \n\t            </tr>\n\t            <tr>\n\t                <td>38188</td>\n\t                \n\t                    <td>orn</td>\n\t                    \n\t                    <td>HVFAVPETLNELDLEGWICFIKESLRSVPDKGAGYGIRRYIHNDTSIEVV...</td>\n\t                    \n\t                    <td>ser</td>\n\t                    \n\t                    <td>173</td>\n\t                    \n\t                    <td>Teredinibacter turnerae T8412 genomic scaffold G00...</td>\n\t                    \n\t                    <td>NZ_KB906796.1.cluster007.gbk</td>\n\t                    \n\t            </tr>\n\t            <tr>\n\t                <td>38561</td>\n\t                \n\t                    <td>orn</td>\n\t                    \n\t                    <td>KLVPTDSLAGSLKQIKEQLRAIPDKGLGFGALRYLGNAEAQQALSELPRP...</td>\n\t                    \n\t                    <td>ser</td>\n\t                    \n\t                    <td>169</td>\n\t                    \n\t                    <td>Pseudomonas simiae strain WCS417 genome.</td>\n\t                    \n\t                    <td>NZ_CP007637.1.cluster001.gbk</td>\n\t                    \n\t            </tr>\n\t            <tr>\n\t                <td>38828</td>\n\t                \n\t                    <td>orn</td>\n\t                    \n\t                    <td>KLVPTDSLAGSLKQIKEQLRAIPDKGLGFGALRYLGNAEAQQALSELPRP...</td>\n\t                    \n\t                    <td>ser</td>\n\t                    \n\t                    <td>168</td>\n\t                    \n\t                    <td>Pseudomonas fluorescens strain PCL1751, complete g...</td>\n\t                    \n\t                    <td>NZ_CP010896.1.cluster001.gbk</td>\n\t                    \n\t            </tr>\n\t        </tbody>\n\t    </table>'
p6
aS'New Linkers Table:'
p7
aS'Old Linkers Table:'
p8
aVD-Phe--Pro,Phe,D-Phe--Asn,Gln,Tyr,Val,Orn,Leu
p9
aVD-Phe--Pro,Val,D-Phe--Asn,Gln,Tyr,Val,Orn,Ser
p10
ac__builtin__
set
p11
((lp12
(Vval
p13
Vd-phe
p14
tp15
a(Vpro
p16
Vval
p17
tp18
a(Vorn
p19
Vser
p20
tp21
atp22
Rp23
a(lp24
aI2
a(lp25
((Vpro
p26
Vphe
p27
tp28
(Vpro
p29
Vval
p30
I2
tp31
I0
I1
tp32
a((Vphe
p33
Vd-phe
p34
tp35
(Vval
p36
Vd-phe
p37
I1
tp38
I1
I1
tp39
a((Vorn
p40
Vleu
p41
tp42
(Vorn
p43
Vser
p44
I2
tp45
I2
I2
tp46
aa.