(lp0
V/static/nourineGraphs/Daptomycin.png
p1
ac__builtin__
id
p2
aVDaptomycin
p3
aV/static/designedGraphs/Daptomycin.png
p4
aS'<table id="table_old" class="display table table-striped table-bordered" width="100%">\n\t        <col width="220">\n\t        <col width="220">\n\t        <col width="220">\n\t        <col width="220">\n\t        <col width="220">\n\t        \n\t        <thead>\n\t            <tr>\n\t            <th>Index</th>\n\t        \n\t                <th>A1</th>\n\t            \n\t                <th>Linker</th>\n\t            \n\t                <th>A2</th>\n\t            \n\t                <th>Antibiotic</th>\n\t            \n\t                <th>MIBiD_ID</th>\n\t            \n\t                <th>Length</th>\n\t            \n\t                <th>Cluster</th>\n\t            </tr>\n\t        </thead>\n\t        <tfoot>\n\t            <tr>\n\t            <th>Index</th>\n\t            \n\t                <th>A1</th>\n\t            \n\t                <th>Linker</th>\n\t            \n\t                <th>A2</th>\n\t            \n\t                <th>Antibiotic</th>\n\t            \n\t                <th>MIBiD_ID</th>\n\t            \n\t                <th>Length</th>\n\t            \n\t                <th>Cluster</th>\n\t            </tr>\n\t        </tfoot>\n\t        <tbody>\n\t            <tr>\n\t                <td>308</td>\n\t                \n\t                    <td>glu</td>\n\t                    \n\t                    <td>RSGAPVRAPLTARERT</td>\n\t                    \n\t                    <td>kyn</td>\n\t                    \n\t                    <td>Daptomycin biosynthetic gene cluster</td>\n\t                    \n\t                    <td>BGC0000336.1</td>\n\t                    \n\t                    <td>16</td>\n\t                    \n\t                    <td>BGC0000336.1.cluster001.gbk</td>\n\t                    \n\t            </tr>\n\t        </tbody>\n\t    </table>'
p5
aS'<table id="table_new" class="display table table-striped table-bordered" width="100%">\n\t        <col width="220">\n\t        <col width="220">\n\t        <col width="220">\n\t        <col width="220">\n\t        <col width="220">\n\t        \n\t        <thead>\n\t            <tr>\n\t            <th>Index</th>\n\t        \n\t                <th>A1</th>\n\t            \n\t                <th>Linker</th>\n\t            \n\t                <th>A2</th>\n\t            \n\t                <th>Length</th>\n\t            \n\t                <th>Description</th>\n\t            \n\t                <th>Cluster</th>\n\t            </tr>\n\t        </thead>\n\t        <tfoot>\n\t            <tr>\n\t            <th>Index</th>\n\t            \n\t                <th>A1</th>\n\t            \n\t                <th>Linker</th>\n\t            \n\t                <th>A2</th>\n\t            \n\t                <th>Length</th>\n\t            \n\t                <th>Description</th>\n\t            \n\t                <th>Cluster</th>\n\t            </tr>\n\t        </tfoot>\n\t        <tbody>\n\t            <tr>\n\t                <td>244</td>\n\t                \n\t                    <td>glu</td>\n\t                    \n\t                    <td>KLKPITQMAASIKAVKEQLRAVPDKGVGYGVLRYLGGEEQQRALELLPQG...</td>\n\t                    \n\t                    <td>ser</td>\n\t                    \n\t                    <td>170</td>\n\t                    \n\t                    <td>Pseudomonas putida NBRC 14164 DNA, complete genome...</td>\n\t                    \n\t                    <td>NC_021505.1.cluster001.gbk</td>\n\t                    \n\t            </tr>\n\t            <tr>\n\t                <td>664</td>\n\t                \n\t                    <td>glu</td>\n\t                    \n\t                    <td>GNTEVLPPIPLAPR</td>\n\t                    \n\t                    <td>ser</td>\n\t                    \n\t                    <td>14</td>\n\t                    \n\t                    <td>Burkholderia pseudomallei 406e chromosome 2, compl...</td>\n\t                    \n\t                    <td>NZ_CP009298.1.cluster010.gbk</td>\n\t                    \n\t            </tr>\n\t            <tr>\n\t                <td>1298</td>\n\t                \n\t                    <td>glu</td>\n\t                    \n\t                    <td>ENTEVLPPIPLAPR</td>\n\t                    \n\t                    <td>ser</td>\n\t                    \n\t                    <td>14</td>\n\t                    \n\t                    <td>Burkholderia pseudomallei MSHR2543 chromosome II, ...</td>\n\t                    \n\t                    <td>NZ_CP009478.1.cluster009.gbk</td>\n\t                    \n\t            </tr>\n\t            <tr>\n\t                <td>2347</td>\n\t                \n\t                    <td>glu</td>\n\t                    \n\t                    <td>EENLYSKIEKVEE</td>\n\t                    \n\t                    <td>ser</td>\n\t                    \n\t                    <td>13</td>\n\t                    \n\t                    <td>Clostridium botulinum H04402 065, complete genome ...</td>\n\t                    \n\t                    <td>NC_017299.1.cluster001.gbk</td>\n\t                    \n\t            </tr>\n\t            <tr>\n\t                <td>2698</td>\n\t                \n\t                    <td>glu</td>\n\t                    \n\t                    <td>ENTAVLPPIPLAPR</td>\n\t                    \n\t                    <td>ser</td>\n\t                    \n\t                    <td>14</td>\n\t                    \n\t                    <td>Burkholderia pseudomallei strain PHLS 112 chromoso...</td>\n\t                    \n\t                    <td>NZ_CP009585.1.cluster010.gbk</td>\n\t                    \n\t            </tr>\n\t            <tr>\n\t                <td>2802</td>\n\t                \n\t                    <td>glu</td>\n\t                    \n\t                    <td>ENTAVLPPIPLAPR</td>\n\t                    \n\t                    <td>ser</td>\n\t                    \n\t                    <td>14</td>\n\t                    \n\t                    <td>Burkholderia pseudomallei Pakistan 9 BUH.Contig242...</td>\n\t                    \n\t                    <td>NZ_ACKA01000071.1.cluster003.gbk</td>\n\t                    \n\t            </tr>\n\t            <tr>\n\t                <td>3660</td>\n\t                \n\t                    <td>glu</td>\n\t                    \n\t                    <td>ENTAVLPPIPLAPR</td>\n\t                    \n\t                    <td>ser</td>\n\t                    \n\t                    <td>14</td>\n\t                    \n\t                    <td>Burkholderia pseudomallei MSHR6137 contig03, whole...</td>\n\t                    \n\t                    <td>NZ_AXDS01000001.1.cluster004.gbk</td>\n\t                    \n\t            </tr>\n\t            <tr>\n\t                <td>4168</td>\n\t                \n\t                    <td>glu</td>\n\t                    \n\t                    <td>GNTEVLPPIPLAPR</td>\n\t                    \n\t                    <td>ser</td>\n\t                    \n\t                    <td>14</td>\n\t                    \n\t                    <td>Burkholderia pseudomallei BPC006 chromosome II, co...</td>\n\t                    \n\t                    <td>NC_018527.1.cluster009.gbk</td>\n\t                    \n\t            </tr>\n\t            <tr>\n\t                <td>4221</td>\n\t                \n\t                    <td>glu</td>\n\t                    \n\t                    <td>GNTEVLPPIPLAPR</td>\n\t                    \n\t                    <td>ser</td>\n\t                    \n\t                    <td>14</td>\n\t                    \n\t                    <td>Burkholderia pseudomallei 1106a chromosome II, com...</td>\n\t                    \n\t                    <td>NC_009076.1.cluster009.gbk</td>\n\t                    \n\t            </tr>\n\t            <tr>\n\t                <td>4288</td>\n\t                \n\t                    <td>glu</td>\n\t                    \n\t                    <td>ENTAVLPPIPLAPR</td>\n\t                    \n\t                    <td>ser</td>\n\t                    \n\t                    <td>14</td>\n\t                    \n\t                    <td>Burkholderia pseudomallei strain QCMRI_BP07 Contig...</td>\n\t                    \n\t                    <td>NZ_JYBG01000030.1.cluster008.gbk</td>\n\t                    \n\t            </tr>\n\t            <tr>\n\t                <td>5145</td>\n\t                \n\t                    <td>glu</td>\n\t                    \n\t                    <td>ENTAVLPPIPLAPR</td>\n\t                    \n\t                    <td>ser</td>\n\t                    \n\t                    <td>14</td>\n\t                    \n\t                    <td>Burkholderia pseudomallei 1026b chromosome 2, comp...</td>\n\t                    \n\t                    <td>NC_017831.1.cluster009.gbk</td>\n\t                    \n\t            </tr>\n\t            <tr>\n\t                <td>6904</td>\n\t                \n\t                    <td>glu</td>\n\t                    \n\t                    <td>GNTEVLPPIPLAPR</td>\n\t                    \n\t                    <td>ser</td>\n\t                    \n\t                    <td>14</td>\n\t                    \n\t                    <td>Burkholderia pseudomallei 1710a chromosome II, who...</td>\n\t                    \n\t                    <td>NZ_CM000832.1.cluster008.gbk</td>\n\t                    \n\t            </tr>\n\t            <tr>\n\t                <td>8477</td>\n\t                \n\t                    <td>glu</td>\n\t                    \n\t                    <td>TAADEVDAVDALPAIKRVSR</td>\n\t                    \n\t                    <td>ser</td>\n\t                    \n\t                    <td>20</td>\n\t                    \n\t                    <td>Brevibacillus brevis strain NBRC 110488, whole gen...</td>\n\t                    \n\t                    <td>NZ_BDFB01000004.1.cluster006.gbk</td>\n\t                    \n\t            </tr>\n\t            <tr>\n\t                <td>8636</td>\n\t                \n\t                    <td>glu</td>\n\t                    \n\t                    <td>ENTEVLPPIPLAPR</td>\n\t                    \n\t                    <td>ser</td>\n\t                    \n\t                    <td>14</td>\n\t                    \n\t                    <td>Burkholderia pseudomallei B03 chromosome 2, comple...</td>\n\t                    \n\t                    <td>NZ_CP009151.1.cluster009.gbk</td>\n\t                    \n\t            </tr>\n\t            <tr>\n\t                <td>8971</td>\n\t                \n\t                    <td>glu</td>\n\t                    \n\t                    <td>ENTEVLPPIPLAPR</td>\n\t                    \n\t                    <td>ser</td>\n\t                    \n\t                    <td>14</td>\n\t                    \n\t                    <td>Burkholderia pseudomallei MSHR491 chromosome II, c...</td>\n\t                    \n\t                    <td>NZ_CP009485.1.cluster009.gbk</td>\n\t                    \n\t            </tr>\n\t            <tr>\n\t                <td>9746</td>\n\t                \n\t                    <td>glu</td>\n\t                    \n\t                    <td>ENTAVLPPIPLAPR</td>\n\t                    \n\t                    <td>ser</td>\n\t                    \n\t                    <td>14</td>\n\t                    \n\t                    <td>Burkholderia pseudomallei strain BGR chromosome 2,...</td>\n\t                    \n\t                    <td>NZ_CP008834.1.cluster007.gbk</td>\n\t                    \n\t            </tr>\n\t            <tr>\n\t                <td>13023</td>\n\t                \n\t                    <td>glu</td>\n\t                    \n\t                    <td>TAEVLPPIPLAPR</td>\n\t                    \n\t                    <td>ser</td>\n\t                    \n\t                    <td>13</td>\n\t                    \n\t                    <td>Burkholderia pseudomallei strain BEG scaffold2, wh...</td>\n\t                    \n\t                    <td>NZ_KN150957.1.cluster010.gbk</td>\n\t                    \n\t            </tr>\n\t            <tr>\n\t                <td>13385</td>\n\t                \n\t                    <td>glu</td>\n\t                    \n\t                    <td>GNTEVLPPIPLAPR</td>\n\t                    \n\t                    <td>ser</td>\n\t                    \n\t                    <td>14</td>\n\t                    \n\t                    <td>Burkholderia pseudomallei strain BGJ scaffold2, wh...</td>\n\t                    \n\t                    <td>NZ_KN150955.1.cluster010.gbk</td>\n\t                    \n\t            </tr>\n\t            <tr>\n\t                <td>14414</td>\n\t                \n\t                    <td>glu</td>\n\t                    \n\t                    <td>ENTEVLPPIPLAPR</td>\n\t                    \n\t                    <td>ser</td>\n\t                    \n\t                    <td>14</td>\n\t                    \n\t                    <td>Burkholderia pseudomallei MSHR62 chromosome 2, com...</td>\n\t                    \n\t                    <td>NZ_CP009235.1.cluster009.gbk</td>\n\t                    \n\t            </tr>\n\t            <tr>\n\t                <td>14832</td>\n\t                \n\t                    <td>glu</td>\n\t                    \n\t                    <td>TAAVLPPIPLAPR</td>\n\t                    \n\t                    <td>ser</td>\n\t                    \n\t                    <td>13</td>\n\t                    \n\t                    <td>Burkholderia pseudomallei NCTC 13178 chromosome 2,...</td>\n\t                    \n\t                    <td>NZ_CP004001.1.cluster009.gbk</td>\n\t                    \n\t            </tr>\n\t            <tr>\n\t                <td>15341</td>\n\t                \n\t                    <td>glu</td>\n\t                    \n\t                    <td>ENTEVLPPIPLAPR</td>\n\t                    \n\t                    <td>ser</td>\n\t                    \n\t                    <td>14</td>\n\t                    \n\t                    <td>Burkholderia pseudomallei strain QCMRI_BP13 Contig...</td>\n\t                    \n\t                    <td>NZ_JYBH01000029.1.cluster006.gbk</td>\n\t                    \n\t            </tr>\n\t            <tr>\n\t                <td>16532</td>\n\t                \n\t                    <td>glu</td>\n\t                    \n\t                    <td>GNTEVLPPIPLAPR</td>\n\t                    \n\t                    <td>ser</td>\n\t                    \n\t                    <td>14</td>\n\t                    \n\t                    <td>Burkholderia pseudomallei strain Mahidol-1106a chr...</td>\n\t                    \n\t                    <td>NZ_CP008781.1.cluster004.gbk</td>\n\t                    \n\t            </tr>\n\t            <tr>\n\t                <td>16586</td>\n\t                \n\t                    <td>glu</td>\n\t                    \n\t                    <td>ENTAVLPPIPLTPR</td>\n\t                    \n\t                    <td>ser</td>\n\t                    \n\t                    <td>14</td>\n\t                    \n\t                    <td>Burkholderia pseudomallei strain vgh07 chromosome ...</td>\n\t                    \n\t                    <td>NZ_CP010973.1.cluster008.gbk</td>\n\t                    \n\t            </tr>\n\t            <tr>\n\t                <td>17688</td>\n\t                \n\t                    <td>glu</td>\n\t                    \n\t                    <td>TAEVLPPIPLAPR</td>\n\t                    \n\t                    <td>ser</td>\n\t                    \n\t                    <td>13</td>\n\t                    \n\t                    <td>Burkholderia pseudomallei NCTC 13179 chromosome 2,...</td>\n\t                    \n\t                    <td>NC_022659.1.cluster005.gbk</td>\n\t                    \n\t            </tr>\n\t            <tr>\n\t                <td>18299</td>\n\t                \n\t                    <td>glu</td>\n\t                    \n\t                    <td>ENTAVLPPIPLASR</td>\n\t                    \n\t                    <td>ser</td>\n\t                    \n\t                    <td>14</td>\n\t                    \n\t                    <td>Burkholderia pseudomallei MSHR346 chromosome II ma...</td>\n\t                    \n\t                    <td>NC_012695.1.cluster008.gbk</td>\n\t                    \n\t            </tr>\n\t            <tr>\n\t                <td>19433</td>\n\t                \n\t                    <td>glu</td>\n\t                    \n\t                    <td>GNTEVLPPIPLAPR</td>\n\t                    \n\t                    <td>ser</td>\n\t                    \n\t                    <td>14</td>\n\t                    \n\t                    <td>Burkholderia pseudomallei 1710b chromosome II, com...</td>\n\t                    \n\t                    <td>NC_007434.1.cluster008.gbk</td>\n\t                    \n\t            </tr>\n\t            <tr>\n\t                <td>20014</td>\n\t                \n\t                    <td>glu</td>\n\t                    \n\t                    <td>EVGSGARAALTARVR</td>\n\t                    \n\t                    <td>ser</td>\n\t                    \n\t                    <td>15</td>\n\t                    \n\t                    <td>Rhodococcus sp. 008, complete genome.</td>\n\t                    \n\t                    <td>NZ_CP012749.1.cluster002.gbk</td>\n\t                    \n\t            </tr>\n\t            <tr>\n\t                <td>21637</td>\n\t                \n\t                    <td>glu</td>\n\t                    \n\t                    <td>GNTEVLPPIPLAPR</td>\n\t                    \n\t                    <td>ser</td>\n\t                    \n\t                    <td>14</td>\n\t                    \n\t                    <td>Burkholderia pseudomallei 1106b chromosome II, who...</td>\n\t                    \n\t                    <td>NZ_CM000774.1.cluster009.gbk</td>\n\t                    \n\t            </tr>\n\t            <tr>\n\t                <td>21945</td>\n\t                \n\t                    <td>glu</td>\n\t                    \n\t                    <td>ENTAVLPPIPLASR</td>\n\t                    \n\t                    <td>ser</td>\n\t                    \n\t                    <td>14</td>\n\t                    \n\t                    <td>Burkholderia pseudomallei NAU20B-16 chromosome 2, ...</td>\n\t                    \n\t                    <td>NZ_CP004003.1.cluster005.gbk</td>\n\t                    \n\t            </tr>\n\t            <tr>\n\t                <td>21992</td>\n\t                \n\t                    <td>glu</td>\n\t                    \n\t                    <td>GNTEVLPPIPLAPR</td>\n\t                    \n\t                    <td>ser</td>\n\t                    \n\t                    <td>14</td>\n\t                    \n\t                    <td>Burkholderia pseudomallei S13 scf_1041068450766, w...</td>\n\t                    \n\t                    <td>NZ_CH899775.1.cluster006.gbk</td>\n\t                    \n\t            </tr>\n\t            <tr>\n\t                <td>24213</td>\n\t                \n\t                    <td>glu</td>\n\t                    \n\t                    <td>TAAVLPPIPLAPR</td>\n\t                    \n\t                    <td>ser</td>\n\t                    \n\t                    <td>13</td>\n\t                    \n\t                    <td>Burkholderia pseudomallei MSHR1153 chromosome 2 se...</td>\n\t                    \n\t                    <td>NZ_CP009271.1.cluster009.gbk</td>\n\t                    \n\t            </tr>\n\t            <tr>\n\t                <td>25846</td>\n\t                \n\t                    <td>glu</td>\n\t                    \n\t                    <td>ENTEVLPPIPLAPR</td>\n\t                    \n\t                    <td>ser</td>\n\t                    \n\t                    <td>14</td>\n\t                    \n\t                    <td>Burkholderia pseudomallei strain BDP chromosome 2,...</td>\n\t                    \n\t                    <td>NZ_CP009209.1.cluster009.gbk</td>\n\t                    \n\t            </tr>\n\t            <tr>\n\t                <td>28297</td>\n\t                \n\t                    <td>glu</td>\n\t                    \n\t                    <td>TAADEVNAVDTLPAIKRVSR</td>\n\t                    \n\t                    <td>ser</td>\n\t                    \n\t                    <td>20</td>\n\t                    \n\t                    <td>Brevibacillus sp. BC25 PMI05_contig_198, whole gen...</td>\n\t                    \n\t                    <td>NZ_AKIX01000001.1.cluster008.gbk</td>\n\t                    \n\t            </tr>\n\t            <tr>\n\t                <td>29501</td>\n\t                \n\t                    <td>glu</td>\n\t                    \n\t                    <td>ENTAVLPPIPLAPR</td>\n\t                    \n\t                    <td>ser</td>\n\t                    \n\t                    <td>14</td>\n\t                    \n\t                    <td>Burkholderia pseudomallei MSHR840 chromosome II, c...</td>\n\t                    \n\t                    <td>NZ_CP009474.1.cluster004.gbk</td>\n\t                    \n\t            </tr>\n\t            <tr>\n\t                <td>29726</td>\n\t                \n\t                    <td>glu</td>\n\t                    \n\t                    <td>ENTAVLPPIPLAPR</td>\n\t                    \n\t                    <td>ser</td>\n\t                    \n\t                    <td>14</td>\n\t                    \n\t                    <td>Burkholderia pseudomallei NCTC 13392 NCTC13392_14,...</td>\n\t                    \n\t                    <td>NZ_AOUG01000001.1.cluster004.gbk</td>\n\t                    \n\t            </tr>\n\t            <tr>\n\t                <td>29766</td>\n\t                \n\t                    <td>glu</td>\n\t                    \n\t                    <td>AAADEVNAGDAFPAIKRVSR</td>\n\t                    \n\t                    <td>ser</td>\n\t                    \n\t                    <td>20</td>\n\t                    \n\t                    <td>Brevibacillus brevis NBRC 100599 DNA, complete gen...</td>\n\t                    \n\t                    <td>NC_012491.1.cluster007.gbk</td>\n\t                    \n\t            </tr>\n\t            <tr>\n\t                <td>30540</td>\n\t                \n\t                    <td>glu</td>\n\t                    \n\t                    <td>GNTEVLPPIPLAPR</td>\n\t                    \n\t                    <td>ser</td>\n\t                    \n\t                    <td>14</td>\n\t                    \n\t                    <td>Burkholderia pseudomallei K96243 chromosome 2, com...</td>\n\t                    \n\t                    <td>NC_006350.1.cluster009.gbk</td>\n\t                    \n\t            </tr>\n\t            <tr>\n\t                <td>30541</td>\n\t                \n\t                    <td>glu</td>\n\t                    \n\t                    <td>AEDTYSMDAFPAISRASRD</td>\n\t                    \n\t                    <td>ser</td>\n\t                    \n\t                    <td>19</td>\n\t                    \n\t                    <td>Brevibacillus sp. Leaf182 contig_5, whole genome s...</td>\n\t                    \n\t                    <td>NZ_LMPN01000001.1.cluster006.gbk</td>\n\t                    \n\t            </tr>\n\t            <tr>\n\t                <td>32430</td>\n\t                \n\t                    <td>glu</td>\n\t                    \n\t                    <td>TAADEVDAVDALPAIKRVSR</td>\n\t                    \n\t                    <td>ser</td>\n\t                    \n\t                    <td>20</td>\n\t                    \n\t                    <td>Brevibacillus brevis X23 Scaffold8_1, whole genome...</td>\n\t                    \n\t                    <td>NZ_AKYF01000029.1.cluster005.gbk</td>\n\t                    \n\t            </tr>\n\t            <tr>\n\t                <td>32795</td>\n\t                \n\t                    <td>glu</td>\n\t                    \n\t                    <td>SAGMADSVKAIKEQLRAVPEKGIGYGVLRFLGSDEQRQALAQLPQGEIVF...</td>\n\t                    \n\t                    <td>ser</td>\n\t                    \n\t                    <td>166</td>\n\t                    \n\t                    <td>Pseudomonas sp. LAIL14HWK12:I7 D886DRAFT_scaffold0...</td>\n\t                    \n\t                    <td>NZ_AXYZ01000001.1.cluster003.gbk</td>\n\t                    \n\t            </tr>\n\t            <tr>\n\t                <td>35383</td>\n\t                \n\t                    <td>glu</td>\n\t                    \n\t                    <td>ENTEVLPPIPLAPR</td>\n\t                    \n\t                    <td>ser</td>\n\t                    \n\t                    <td>14</td>\n\t                    \n\t                    <td>Burkholderia pseudomallei A79A chromosome 2, compl...</td>\n\t                    \n\t                    <td>NZ_CP009165.1.cluster009.gbk</td>\n\t                    \n\t            </tr>\n\t            <tr>\n\t                <td>35384</td>\n\t                \n\t                    <td>glu</td>\n\t                    \n\t                    <td>ENTEVLPPIPLAPR</td>\n\t                    \n\t                    <td>ser</td>\n\t                    \n\t                    <td>14</td>\n\t                    \n\t                    <td>Burkholderia pseudomallei A79A chromosome 2, compl...</td>\n\t                    \n\t                    <td>NZ_CP009165.1.cluster009.gbk</td>\n\t                    \n\t            </tr>\n\t            <tr>\n\t                <td>35476</td>\n\t                \n\t                    <td>glu</td>\n\t                    \n\t                    <td>AEDTYSMDAFPAISRASRD</td>\n\t                    \n\t                    <td>ser</td>\n\t                    \n\t                    <td>19</td>\n\t                    \n\t                    <td>Brevibacillus brevis strain DZQ7 Scaffold1_1, whol...</td>\n\t                    \n\t                    <td>NZ_LDZV01000001.1.cluster006.gbk</td>\n\t                    \n\t            </tr>\n\t            <tr>\n\t                <td>36142</td>\n\t                \n\t                    <td>glu</td>\n\t                    \n\t                    <td>EENLYPKIEKVEE</td>\n\t                    \n\t                    <td>ser</td>\n\t                    \n\t                    <td>13</td>\n\t                    \n\t                    <td>Clostridium botulinum strain CDC_69094, complete g...</td>\n\t                    \n\t                    <td>NZ_CP013246.1.cluster001.gbk</td>\n\t                    \n\t            </tr>\n\t            <tr>\n\t                <td>37759</td>\n\t                \n\t                    <td>glu</td>\n\t                    \n\t                    <td>ENTAVLSPIPLAPR</td>\n\t                    \n\t                    <td>ser</td>\n\t                    \n\t                    <td>14</td>\n\t                    \n\t                    <td>Burkholderia pseudomallei 576 BUC.Contig185, whole...</td>\n\t                    \n\t                    <td>NZ_ACCE01000021.1.cluster004.gbk</td>\n\t                    \n\t            </tr>\n\t            <tr>\n\t                <td>38372</td>\n\t                \n\t                    <td>glu</td>\n\t                    \n\t                    <td>TAEVLPPIPLAPR</td>\n\t                    \n\t                    <td>ser</td>\n\t                    \n\t                    <td>13</td>\n\t                    \n\t                    <td>Burkholderia sp. TSV202 chromosome 2, complete seq...</td>\n\t                    \n\t                    <td>NZ_CP009157.1.cluster006.gbk</td>\n\t                    \n\t            </tr>\n\t            <tr>\n\t                <td>38373</td>\n\t                \n\t                    <td>glu</td>\n\t                    \n\t                    <td>TAEVLPPIPLAPR</td>\n\t                    \n\t                    <td>ser</td>\n\t                    \n\t                    <td>13</td>\n\t                    \n\t                    <td>Burkholderia sp. TSV202 chromosome 2, complete seq...</td>\n\t                    \n\t                    <td>NZ_CP009157.1.cluster006.gbk</td>\n\t                    \n\t            </tr>\n\t        </tbody>\n\t    </table>'
p6
aS'New Linkers Table:'
p7
aS'Old Linkers Table:'
p8
aVTrp,D-Asn,Asp,Thr,Gly--Orn,Asp,D-Ala,Asp,Gly,Ser--3Me-Glu,Kyn
p9
aVTrp,D-Asn,Asp,Thr,Gly--Orn,Asp,D-Ala,Asp,Gly,Ser--3Me-Glu,Ser
p10
ac__builtin__
set
p11
((lp12
(V3me-glu
p13
Vser
p14
tp15
atp16
Rp17
a(lp18
aI1
a(lp19
((V3me-glu
p20
Vkyn
p21
tp22
(V3me-glu
p23
Vser
p24
I2
tp25
I0
I2
tp26
aa.